
GPIO_REGISTRADORES_LED.elf:     file format elf32-littlearm

Sections:
Idx Name          Size      VMA       LMA       File off  Algn
  0 .text         00000df0  00400000  00400000  00008000  2**2
                  CONTENTS, ALLOC, LOAD, READONLY, CODE
  1 .ARM.exidx    00000008  00400df0  00400df0  00008df0  2**2
                  CONTENTS, ALLOC, LOAD, READONLY, DATA
  2 .relocate     00000438  20000000  00400df8  00010000  2**3
                  CONTENTS, ALLOC, LOAD, CODE
  3 .bss          00000094  20000438  00401230  00010438  2**2
                  ALLOC
  4 .stack        00003004  200004cc  004012c4  00010438  2**0
                  ALLOC
  5 .ARM.attributes 0000002a  00000000  00000000  00010438  2**0
                  CONTENTS, READONLY
  6 .comment      0000005b  00000000  00000000  00010462  2**0
                  CONTENTS, READONLY
  7 .debug_info   000059be  00000000  00000000  000104bd  2**0
                  CONTENTS, READONLY, DEBUGGING
  8 .debug_abbrev 00000f4d  00000000  00000000  00015e7b  2**0
                  CONTENTS, READONLY, DEBUGGING
  9 .debug_loc    00002354  00000000  00000000  00016dc8  2**0
                  CONTENTS, READONLY, DEBUGGING
 10 .debug_aranges 00000500  00000000  00000000  0001911c  2**0
                  CONTENTS, READONLY, DEBUGGING
 11 .debug_ranges 00000480  00000000  00000000  0001961c  2**0
                  CONTENTS, READONLY, DEBUGGING
 12 .debug_macro  00011010  00000000  00000000  00019a9c  2**0
                  CONTENTS, READONLY, DEBUGGING
 13 .debug_line   00005cad  00000000  00000000  0002aaac  2**0
                  CONTENTS, READONLY, DEBUGGING
 14 .debug_str    000509db  00000000  00000000  00030759  2**0
                  CONTENTS, READONLY, DEBUGGING
 15 .debug_frame  00000c78  00000000  00000000  00081134  2**2
                  CONTENTS, READONLY, DEBUGGING

Disassembly of section .text:

00400000 <_sfixed>:
  400000:	200034d0 	.word	0x200034d0
  400004:	00400329 	.word	0x00400329
  400008:	00400325 	.word	0x00400325
  40000c:	00400325 	.word	0x00400325
  400010:	00400325 	.word	0x00400325
  400014:	00400325 	.word	0x00400325
  400018:	00400325 	.word	0x00400325
	...
  40002c:	00400325 	.word	0x00400325
  400030:	00400325 	.word	0x00400325
  400034:	00000000 	.word	0x00000000
  400038:	00400325 	.word	0x00400325
  40003c:	00400325 	.word	0x00400325
  400040:	00400325 	.word	0x00400325
  400044:	00400325 	.word	0x00400325
  400048:	00400325 	.word	0x00400325
  40004c:	00400325 	.word	0x00400325
  400050:	00400325 	.word	0x00400325
  400054:	00400325 	.word	0x00400325
  400058:	00400325 	.word	0x00400325
  40005c:	00400325 	.word	0x00400325
  400060:	00400325 	.word	0x00400325
  400064:	00400325 	.word	0x00400325
  400068:	00000000 	.word	0x00000000
  40006c:	004001fd 	.word	0x004001fd
  400070:	00400211 	.word	0x00400211
  400074:	00400225 	.word	0x00400225
  400078:	00400325 	.word	0x00400325
  40007c:	00400325 	.word	0x00400325
	...
  400088:	00400325 	.word	0x00400325
  40008c:	00400325 	.word	0x00400325
  400090:	00400325 	.word	0x00400325
  400094:	00400325 	.word	0x00400325
  400098:	00400325 	.word	0x00400325
  40009c:	00400325 	.word	0x00400325
  4000a0:	00400325 	.word	0x00400325
  4000a4:	00400325 	.word	0x00400325
  4000a8:	00400325 	.word	0x00400325
  4000ac:	00400325 	.word	0x00400325
  4000b0:	00400325 	.word	0x00400325
  4000b4:	00400325 	.word	0x00400325
  4000b8:	00400325 	.word	0x00400325
  4000bc:	00400325 	.word	0x00400325
  4000c0:	00400325 	.word	0x00400325
  4000c4:	00400325 	.word	0x00400325
  4000c8:	00400325 	.word	0x00400325

004000cc <__do_global_dtors_aux>:
  4000cc:	b510      	push	{r4, lr}
  4000ce:	4c05      	ldr	r4, [pc, #20]	; (4000e4 <__do_global_dtors_aux+0x18>)
  4000d0:	7823      	ldrb	r3, [r4, #0]
  4000d2:	b933      	cbnz	r3, 4000e2 <__do_global_dtors_aux+0x16>
  4000d4:	4b04      	ldr	r3, [pc, #16]	; (4000e8 <__do_global_dtors_aux+0x1c>)
  4000d6:	b113      	cbz	r3, 4000de <__do_global_dtors_aux+0x12>
  4000d8:	4804      	ldr	r0, [pc, #16]	; (4000ec <__do_global_dtors_aux+0x20>)
  4000da:	f3af 8000 	nop.w
  4000de:	2301      	movs	r3, #1
  4000e0:	7023      	strb	r3, [r4, #0]
  4000e2:	bd10      	pop	{r4, pc}
  4000e4:	20000438 	.word	0x20000438
  4000e8:	00000000 	.word	0x00000000
  4000ec:	00400df8 	.word	0x00400df8

004000f0 <frame_dummy>:
  4000f0:	4b08      	ldr	r3, [pc, #32]	; (400114 <frame_dummy+0x24>)
  4000f2:	b510      	push	{r4, lr}
  4000f4:	b11b      	cbz	r3, 4000fe <frame_dummy+0xe>
  4000f6:	4808      	ldr	r0, [pc, #32]	; (400118 <frame_dummy+0x28>)
  4000f8:	4908      	ldr	r1, [pc, #32]	; (40011c <frame_dummy+0x2c>)
  4000fa:	f3af 8000 	nop.w
  4000fe:	4808      	ldr	r0, [pc, #32]	; (400120 <frame_dummy+0x30>)
  400100:	6803      	ldr	r3, [r0, #0]
  400102:	b903      	cbnz	r3, 400106 <frame_dummy+0x16>
  400104:	bd10      	pop	{r4, pc}
  400106:	4b07      	ldr	r3, [pc, #28]	; (400124 <frame_dummy+0x34>)
  400108:	2b00      	cmp	r3, #0
  40010a:	d0fb      	beq.n	400104 <frame_dummy+0x14>
  40010c:	e8bd 4010 	ldmia.w	sp!, {r4, lr}
  400110:	4718      	bx	r3
  400112:	bf00      	nop
  400114:	00000000 	.word	0x00000000
  400118:	00400df8 	.word	0x00400df8
  40011c:	2000043c 	.word	0x2000043c
  400120:	00400df8 	.word	0x00400df8
  400124:	00000000 	.word	0x00000000

00400128 <sysclk_init>:
	pmc_disable_udpck();
}
#endif // CONFIG_USBCLK_SOURCE

void sysclk_init(void)
{
  400128:	b510      	push	{r4, lr}
	/* Set flash wait state to max in case the below clock switching. */
	system_init_flash(CHIP_FREQ_CPU_MAX);
  40012a:	480e      	ldr	r0, [pc, #56]	; (400164 <sysclk_init+0x3c>)
  40012c:	4b0e      	ldr	r3, [pc, #56]	; (400168 <sysclk_init+0x40>)
  40012e:	4798      	blx	r3
		pmc_switch_mainck_to_fastrc(CKGR_MOR_MOSCRCF_12_MHz);
		break;


	case OSC_MAINCK_XTAL:
		pmc_switch_mainck_to_xtal(PMC_OSC_XTAL,
  400130:	2000      	movs	r0, #0
  400132:	213e      	movs	r1, #62	; 0x3e
  400134:	4b0d      	ldr	r3, [pc, #52]	; (40016c <sysclk_init+0x44>)
  400136:	4798      	blx	r3
	case OSC_MAINCK_4M_RC:
	case OSC_MAINCK_8M_RC:
	case OSC_MAINCK_12M_RC:
	case OSC_MAINCK_XTAL:
	case OSC_MAINCK_BYPASS:
		return pmc_osc_is_ready_mainck();
  400138:	4c0d      	ldr	r4, [pc, #52]	; (400170 <sysclk_init+0x48>)
  40013a:	47a0      	blx	r4
 *
 * \param id A number identifying the oscillator to wait for.
 */
static inline void osc_wait_ready(uint8_t id)
{
	while (!osc_is_ready(id)) {
  40013c:	2800      	cmp	r0, #0
  40013e:	d0fc      	beq.n	40013a <sysclk_init+0x12>
static inline void pll_enable(const struct pll_config *p_cfg, uint32_t ul_pll_id)
{
	Assert(ul_pll_id < NR_PLLS);

	if (ul_pll_id == PLLA_ID) {
		pmc_disable_pllack(); // Always stop PLL first!
  400140:	4b0c      	ldr	r3, [pc, #48]	; (400174 <sysclk_init+0x4c>)
  400142:	4798      	blx	r3
		PMC->CKGR_PLLAR = CKGR_PLLAR_ONE | p_cfg->ctrl;
  400144:	4a0c      	ldr	r2, [pc, #48]	; (400178 <sysclk_init+0x50>)
  400146:	4b0d      	ldr	r3, [pc, #52]	; (40017c <sysclk_init+0x54>)
  400148:	629a      	str	r2, [r3, #40]	; 0x28
static inline uint32_t pll_is_locked(uint32_t ul_pll_id)
{
	Assert(ul_pll_id < NR_PLLS);

	if (ul_pll_id == PLLA_ID) {
		return pmc_is_locked_pllack();
  40014a:	4c0d      	ldr	r4, [pc, #52]	; (400180 <sysclk_init+0x58>)
  40014c:	47a0      	blx	r4
 */
static inline int pll_wait_for_lock(unsigned int pll_id)
{
	Assert(pll_id < NR_PLLS);

	while (!pll_is_locked(pll_id)) {
  40014e:	2800      	cmp	r0, #0
  400150:	d0fc      	beq.n	40014c <sysclk_init+0x24>

		pll_enable_source(CONFIG_PLL0_SOURCE);
		pll_config_defaults(&pllcfg, 0);
		pll_enable(&pllcfg, 0);
		pll_wait_for_lock(0);
		pmc_switch_mck_to_pllack(CONFIG_SYSCLK_PRES);
  400152:	2010      	movs	r0, #16
  400154:	4b0b      	ldr	r3, [pc, #44]	; (400184 <sysclk_init+0x5c>)
  400156:	4798      	blx	r3
		pmc_switch_mck_to_pllbck(CONFIG_SYSCLK_PRES);
	}
#endif

	/* Update the SystemFrequency variable */
	SystemCoreClockUpdate();
  400158:	4b0b      	ldr	r3, [pc, #44]	; (400188 <sysclk_init+0x60>)
  40015a:	4798      	blx	r3

	/* Set a flash wait state depending on the new cpu frequency */
	system_init_flash(sysclk_get_cpu_hz());
  40015c:	4801      	ldr	r0, [pc, #4]	; (400164 <sysclk_init+0x3c>)
  40015e:	4b02      	ldr	r3, [pc, #8]	; (400168 <sysclk_init+0x40>)
  400160:	4798      	blx	r3
  400162:	bd10      	pop	{r4, pc}
  400164:	07270e00 	.word	0x07270e00
  400168:	004004ed 	.word	0x004004ed
  40016c:	004002a1 	.word	0x004002a1
  400170:	004002f5 	.word	0x004002f5
  400174:	00400305 	.word	0x00400305
  400178:	20133f01 	.word	0x20133f01
  40017c:	400e0400 	.word	0x400e0400
  400180:	00400315 	.word	0x00400315
  400184:	00400239 	.word	0x00400239
  400188:	004003d9 	.word	0x004003d9

0040018c <pio_get_interrupt_status>:
 *
 * \return The interrupt status mask value.
 */
uint32_t pio_get_interrupt_status(const Pio *p_pio)
{
	return p_pio->PIO_ISR;
  40018c:	6cc0      	ldr	r0, [r0, #76]	; 0x4c
}
  40018e:	4770      	bx	lr

00400190 <pio_get_interrupt_mask>:
 *
 * \return The interrupt mask value.
 */
uint32_t pio_get_interrupt_mask(const Pio *p_pio)
{
	return p_pio->PIO_IMR;
  400190:	6c80      	ldr	r0, [r0, #72]	; 0x48
}
  400192:	4770      	bx	lr

00400194 <pio_handler_process>:
 *
 * \param p_pio PIO controller base address.
 * \param ul_id PIO controller ID.
 */
void pio_handler_process(Pio *p_pio, uint32_t ul_id)
{
  400194:	e92d 43f8 	stmdb	sp!, {r3, r4, r5, r6, r7, r8, r9, lr}
  400198:	4681      	mov	r9, r0
  40019a:	4688      	mov	r8, r1
	uint32_t status;
	uint32_t i;

	/* Read PIO controller status */
	status = pio_get_interrupt_status(p_pio);
  40019c:	4b12      	ldr	r3, [pc, #72]	; (4001e8 <pio_handler_process+0x54>)
  40019e:	4798      	blx	r3
  4001a0:	4605      	mov	r5, r0
	status &= pio_get_interrupt_mask(p_pio);
  4001a2:	4648      	mov	r0, r9
  4001a4:	4b11      	ldr	r3, [pc, #68]	; (4001ec <pio_handler_process+0x58>)
  4001a6:	4798      	blx	r3

	/* Check pending events */
	if (status != 0) {
  4001a8:	4005      	ands	r5, r0
  4001aa:	d013      	beq.n	4001d4 <pio_handler_process+0x40>
  4001ac:	4c10      	ldr	r4, [pc, #64]	; (4001f0 <pio_handler_process+0x5c>)
  4001ae:	f104 0660 	add.w	r6, r4, #96	; 0x60
		/* Find triggering source */
		i = 0;
		while (status != 0) {
			/* Source is configured on the same controller */
			if (gs_interrupt_sources[i].id == ul_id) {
  4001b2:	6823      	ldr	r3, [r4, #0]
  4001b4:	4543      	cmp	r3, r8
  4001b6:	d108      	bne.n	4001ca <pio_handler_process+0x36>
				/* Source has PIOs whose statuses have changed */
				if ((status & gs_interrupt_sources[i].mask) != 0) {
  4001b8:	6861      	ldr	r1, [r4, #4]
  4001ba:	4229      	tst	r1, r5
  4001bc:	d005      	beq.n	4001ca <pio_handler_process+0x36>
					gs_interrupt_sources[i].handler(gs_interrupt_sources[i].id,
  4001be:	68e3      	ldr	r3, [r4, #12]
  4001c0:	4640      	mov	r0, r8
  4001c2:	4798      	blx	r3
							gs_interrupt_sources[i].mask);
					status &= ~(gs_interrupt_sources[i].mask);
  4001c4:	6863      	ldr	r3, [r4, #4]
  4001c6:	ea25 0503 	bic.w	r5, r5, r3
				}
			}
			i++;
			if (i >= MAX_INTERRUPT_SOURCES) {
  4001ca:	42b4      	cmp	r4, r6
  4001cc:	d002      	beq.n	4001d4 <pio_handler_process+0x40>
  4001ce:	3410      	adds	r4, #16

	/* Check pending events */
	if (status != 0) {
		/* Find triggering source */
		i = 0;
		while (status != 0) {
  4001d0:	2d00      	cmp	r5, #0
  4001d2:	d1ee      	bne.n	4001b2 <pio_handler_process+0x1e>
		}
	}

	/* Check capture events */
#if (SAM3S || SAM4S || SAM4E)
	if (pio_capture_enable_flag) {
  4001d4:	4b07      	ldr	r3, [pc, #28]	; (4001f4 <pio_handler_process+0x60>)
  4001d6:	681b      	ldr	r3, [r3, #0]
  4001d8:	b123      	cbz	r3, 4001e4 <pio_handler_process+0x50>
		if (pio_capture_handler) {
  4001da:	4b07      	ldr	r3, [pc, #28]	; (4001f8 <pio_handler_process+0x64>)
  4001dc:	681b      	ldr	r3, [r3, #0]
  4001de:	b10b      	cbz	r3, 4001e4 <pio_handler_process+0x50>
			pio_capture_handler(p_pio);
  4001e0:	4648      	mov	r0, r9
  4001e2:	4798      	blx	r3
  4001e4:	e8bd 83f8 	ldmia.w	sp!, {r3, r4, r5, r6, r7, r8, r9, pc}
  4001e8:	0040018d 	.word	0x0040018d
  4001ec:	00400191 	.word	0x00400191
  4001f0:	20000458 	.word	0x20000458
  4001f4:	200004c8 	.word	0x200004c8
  4001f8:	20000454 	.word	0x20000454

004001fc <PIOA_Handler>:
/**
 * \brief Parallel IO Controller A interrupt handler.
 * Redefined PIOA interrupt handler for NVIC interrupt table.
 */
void PIOA_Handler(void)
{
  4001fc:	b508      	push	{r3, lr}
	pio_handler_process(PIOA, ID_PIOA);
  4001fe:	4802      	ldr	r0, [pc, #8]	; (400208 <PIOA_Handler+0xc>)
  400200:	210b      	movs	r1, #11
  400202:	4b02      	ldr	r3, [pc, #8]	; (40020c <PIOA_Handler+0x10>)
  400204:	4798      	blx	r3
  400206:	bd08      	pop	{r3, pc}
  400208:	400e0e00 	.word	0x400e0e00
  40020c:	00400195 	.word	0x00400195

00400210 <PIOB_Handler>:
/**
 * \brief Parallel IO Controller B interrupt handler
 * Redefined PIOB interrupt handler for NVIC interrupt table.
 */
void PIOB_Handler(void)
{
  400210:	b508      	push	{r3, lr}
    pio_handler_process(PIOB, ID_PIOB);
  400212:	4802      	ldr	r0, [pc, #8]	; (40021c <PIOB_Handler+0xc>)
  400214:	210c      	movs	r1, #12
  400216:	4b02      	ldr	r3, [pc, #8]	; (400220 <PIOB_Handler+0x10>)
  400218:	4798      	blx	r3
  40021a:	bd08      	pop	{r3, pc}
  40021c:	400e1000 	.word	0x400e1000
  400220:	00400195 	.word	0x00400195

00400224 <PIOC_Handler>:
/**
 * \brief Parallel IO Controller C interrupt handler.
 * Redefined PIOC interrupt handler for NVIC interrupt table.
 */
void PIOC_Handler(void)
{
  400224:	b508      	push	{r3, lr}
	pio_handler_process(PIOC, ID_PIOC);
  400226:	4802      	ldr	r0, [pc, #8]	; (400230 <PIOC_Handler+0xc>)
  400228:	210d      	movs	r1, #13
  40022a:	4b02      	ldr	r3, [pc, #8]	; (400234 <PIOC_Handler+0x10>)
  40022c:	4798      	blx	r3
  40022e:	bd08      	pop	{r3, pc}
  400230:	400e1200 	.word	0x400e1200
  400234:	00400195 	.word	0x00400195

00400238 <pmc_switch_mck_to_pllack>:
 */
uint32_t pmc_switch_mck_to_pllack(uint32_t ul_pres)
{
	uint32_t ul_timeout;

	PMC->PMC_MCKR = (PMC->PMC_MCKR & (~PMC_MCKR_PRES_Msk)) | ul_pres;
  400238:	4a18      	ldr	r2, [pc, #96]	; (40029c <pmc_switch_mck_to_pllack+0x64>)
  40023a:	6b13      	ldr	r3, [r2, #48]	; 0x30
  40023c:	f023 0370 	bic.w	r3, r3, #112	; 0x70
  400240:	4318      	orrs	r0, r3
  400242:	6310      	str	r0, [r2, #48]	; 0x30
	for (ul_timeout = PMC_TIMEOUT; !(PMC->PMC_SR & PMC_SR_MCKRDY);
  400244:	6e93      	ldr	r3, [r2, #104]	; 0x68
  400246:	f013 0f08 	tst.w	r3, #8
  40024a:	d003      	beq.n	400254 <pmc_switch_mck_to_pllack+0x1c>
  40024c:	e009      	b.n	400262 <pmc_switch_mck_to_pllack+0x2a>
			--ul_timeout) {
		if (ul_timeout == 0) {
  40024e:	3b01      	subs	r3, #1
  400250:	d103      	bne.n	40025a <pmc_switch_mck_to_pllack+0x22>
  400252:	e01e      	b.n	400292 <pmc_switch_mck_to_pllack+0x5a>
uint32_t pmc_switch_mck_to_pllack(uint32_t ul_pres)
{
	uint32_t ul_timeout;

	PMC->PMC_MCKR = (PMC->PMC_MCKR & (~PMC_MCKR_PRES_Msk)) | ul_pres;
	for (ul_timeout = PMC_TIMEOUT; !(PMC->PMC_SR & PMC_SR_MCKRDY);
  400254:	f44f 6300 	mov.w	r3, #2048	; 0x800
  400258:	4910      	ldr	r1, [pc, #64]	; (40029c <pmc_switch_mck_to_pllack+0x64>)
  40025a:	6e8a      	ldr	r2, [r1, #104]	; 0x68
  40025c:	f012 0f08 	tst.w	r2, #8
  400260:	d0f5      	beq.n	40024e <pmc_switch_mck_to_pllack+0x16>
		if (ul_timeout == 0) {
			return 1;
		}
	}

	PMC->PMC_MCKR = (PMC->PMC_MCKR & (~PMC_MCKR_CSS_Msk)) |
  400262:	4a0e      	ldr	r2, [pc, #56]	; (40029c <pmc_switch_mck_to_pllack+0x64>)
  400264:	6b13      	ldr	r3, [r2, #48]	; 0x30
  400266:	f023 0303 	bic.w	r3, r3, #3
  40026a:	f043 0302 	orr.w	r3, r3, #2
  40026e:	6313      	str	r3, [r2, #48]	; 0x30
			PMC_MCKR_CSS_PLLA_CLK;

	for (ul_timeout = PMC_TIMEOUT; !(PMC->PMC_SR & PMC_SR_MCKRDY);
  400270:	6e90      	ldr	r0, [r2, #104]	; 0x68
  400272:	f010 0008 	ands.w	r0, r0, #8
  400276:	d004      	beq.n	400282 <pmc_switch_mck_to_pllack+0x4a>
		if (ul_timeout == 0) {
			return 1;
		}
	}

	return 0;
  400278:	2000      	movs	r0, #0
  40027a:	4770      	bx	lr
	PMC->PMC_MCKR = (PMC->PMC_MCKR & (~PMC_MCKR_CSS_Msk)) |
			PMC_MCKR_CSS_PLLA_CLK;

	for (ul_timeout = PMC_TIMEOUT; !(PMC->PMC_SR & PMC_SR_MCKRDY);
			--ul_timeout) {
		if (ul_timeout == 0) {
  40027c:	3b01      	subs	r3, #1
  40027e:	d103      	bne.n	400288 <pmc_switch_mck_to_pllack+0x50>
  400280:	e009      	b.n	400296 <pmc_switch_mck_to_pllack+0x5e>
	}

	PMC->PMC_MCKR = (PMC->PMC_MCKR & (~PMC_MCKR_CSS_Msk)) |
			PMC_MCKR_CSS_PLLA_CLK;

	for (ul_timeout = PMC_TIMEOUT; !(PMC->PMC_SR & PMC_SR_MCKRDY);
  400282:	f44f 6300 	mov.w	r3, #2048	; 0x800
  400286:	4905      	ldr	r1, [pc, #20]	; (40029c <pmc_switch_mck_to_pllack+0x64>)
  400288:	6e8a      	ldr	r2, [r1, #104]	; 0x68
  40028a:	f012 0f08 	tst.w	r2, #8
  40028e:	d0f5      	beq.n	40027c <pmc_switch_mck_to_pllack+0x44>
  400290:	4770      	bx	lr

	PMC->PMC_MCKR = (PMC->PMC_MCKR & (~PMC_MCKR_PRES_Msk)) | ul_pres;
	for (ul_timeout = PMC_TIMEOUT; !(PMC->PMC_SR & PMC_SR_MCKRDY);
			--ul_timeout) {
		if (ul_timeout == 0) {
			return 1;
  400292:	2001      	movs	r0, #1
  400294:	4770      	bx	lr
			PMC_MCKR_CSS_PLLA_CLK;

	for (ul_timeout = PMC_TIMEOUT; !(PMC->PMC_SR & PMC_SR_MCKRDY);
			--ul_timeout) {
		if (ul_timeout == 0) {
			return 1;
  400296:	2001      	movs	r0, #1
		}
	}

	return 0;
}
  400298:	4770      	bx	lr
  40029a:	bf00      	nop
  40029c:	400e0400 	.word	0x400e0400

004002a0 <pmc_switch_mainck_to_xtal>:
 */
void pmc_switch_mainck_to_xtal(uint32_t ul_bypass,
		uint32_t ul_xtal_startup_time)
{
	/* Enable Main Xtal oscillator */
	if (ul_bypass) {
  4002a0:	b138      	cbz	r0, 4002b2 <pmc_switch_mainck_to_xtal+0x12>
		PMC->CKGR_MOR = (PMC->CKGR_MOR & ~CKGR_MOR_MOSCXTEN) |
  4002a2:	4911      	ldr	r1, [pc, #68]	; (4002e8 <pmc_switch_mainck_to_xtal+0x48>)
  4002a4:	6a0b      	ldr	r3, [r1, #32]
				CKGR_MOR_KEY_PASSWD | CKGR_MOR_MOSCXTBY |
  4002a6:	4a11      	ldr	r2, [pc, #68]	; (4002ec <pmc_switch_mainck_to_xtal+0x4c>)
  4002a8:	401a      	ands	r2, r3
  4002aa:	4b11      	ldr	r3, [pc, #68]	; (4002f0 <pmc_switch_mainck_to_xtal+0x50>)
  4002ac:	4313      	orrs	r3, r2
void pmc_switch_mainck_to_xtal(uint32_t ul_bypass,
		uint32_t ul_xtal_startup_time)
{
	/* Enable Main Xtal oscillator */
	if (ul_bypass) {
		PMC->CKGR_MOR = (PMC->CKGR_MOR & ~CKGR_MOR_MOSCXTEN) |
  4002ae:	620b      	str	r3, [r1, #32]
  4002b0:	4770      	bx	lr
				CKGR_MOR_KEY_PASSWD | CKGR_MOR_MOSCXTBY |
				CKGR_MOR_MOSCSEL;
	} else {
		PMC->CKGR_MOR = (PMC->CKGR_MOR & ~CKGR_MOR_MOSCXTBY) |
  4002b2:	4a0d      	ldr	r2, [pc, #52]	; (4002e8 <pmc_switch_mainck_to_xtal+0x48>)
  4002b4:	6a13      	ldr	r3, [r2, #32]
				CKGR_MOR_KEY_PASSWD | CKGR_MOR_MOSCXTEN |
  4002b6:	f423 135c 	bic.w	r3, r3, #3604480	; 0x370000
  4002ba:	f023 0303 	bic.w	r3, r3, #3
  4002be:	f443 135c 	orr.w	r3, r3, #3604480	; 0x370000
  4002c2:	f043 0301 	orr.w	r3, r3, #1
				CKGR_MOR_MOSCXTST(ul_xtal_startup_time);
  4002c6:	0209      	lsls	r1, r1, #8
  4002c8:	b289      	uxth	r1, r1
		PMC->CKGR_MOR = (PMC->CKGR_MOR & ~CKGR_MOR_MOSCXTEN) |
				CKGR_MOR_KEY_PASSWD | CKGR_MOR_MOSCXTBY |
				CKGR_MOR_MOSCSEL;
	} else {
		PMC->CKGR_MOR = (PMC->CKGR_MOR & ~CKGR_MOR_MOSCXTBY) |
				CKGR_MOR_KEY_PASSWD | CKGR_MOR_MOSCXTEN |
  4002ca:	430b      	orrs	r3, r1
	if (ul_bypass) {
		PMC->CKGR_MOR = (PMC->CKGR_MOR & ~CKGR_MOR_MOSCXTEN) |
				CKGR_MOR_KEY_PASSWD | CKGR_MOR_MOSCXTBY |
				CKGR_MOR_MOSCSEL;
	} else {
		PMC->CKGR_MOR = (PMC->CKGR_MOR & ~CKGR_MOR_MOSCXTBY) |
  4002cc:	6213      	str	r3, [r2, #32]
				CKGR_MOR_KEY_PASSWD | CKGR_MOR_MOSCXTEN |
				CKGR_MOR_MOSCXTST(ul_xtal_startup_time);
		/* Wait the Xtal to stabilize */
		while (!(PMC->PMC_SR & PMC_SR_MOSCXTS));
  4002ce:	6e93      	ldr	r3, [r2, #104]	; 0x68
  4002d0:	f013 0f01 	tst.w	r3, #1
  4002d4:	d0fb      	beq.n	4002ce <pmc_switch_mainck_to_xtal+0x2e>

		PMC->CKGR_MOR |= CKGR_MOR_KEY_PASSWD | CKGR_MOR_MOSCSEL;
  4002d6:	4a04      	ldr	r2, [pc, #16]	; (4002e8 <pmc_switch_mainck_to_xtal+0x48>)
  4002d8:	6a13      	ldr	r3, [r2, #32]
  4002da:	f043 739b 	orr.w	r3, r3, #20316160	; 0x1360000
  4002de:	f443 3380 	orr.w	r3, r3, #65536	; 0x10000
  4002e2:	6213      	str	r3, [r2, #32]
  4002e4:	4770      	bx	lr
  4002e6:	bf00      	nop
  4002e8:	400e0400 	.word	0x400e0400
  4002ec:	fec8fffc 	.word	0xfec8fffc
  4002f0:	01370002 	.word	0x01370002

004002f4 <pmc_osc_is_ready_mainck>:
 * \retval 1 Xtal is ready.
 * \retval 0 Xtal is not ready.
 */
uint32_t pmc_osc_is_ready_mainck(void)
{
	return PMC->PMC_SR & PMC_SR_MOSCSELS;
  4002f4:	4b02      	ldr	r3, [pc, #8]	; (400300 <pmc_osc_is_ready_mainck+0xc>)
  4002f6:	6e98      	ldr	r0, [r3, #104]	; 0x68
}
  4002f8:	f400 3080 	and.w	r0, r0, #65536	; 0x10000
  4002fc:	4770      	bx	lr
  4002fe:	bf00      	nop
  400300:	400e0400 	.word	0x400e0400

00400304 <pmc_disable_pllack>:
void pmc_disable_pllack(void)
{
#if (SAM4C || SAM4CM || SAM4CP || SAMG)
	PMC->CKGR_PLLAR = CKGR_PLLAR_MULA(0);
#else
	PMC->CKGR_PLLAR = CKGR_PLLAR_ONE | CKGR_PLLAR_MULA(0);
  400304:	f04f 5200 	mov.w	r2, #536870912	; 0x20000000
  400308:	4b01      	ldr	r3, [pc, #4]	; (400310 <pmc_disable_pllack+0xc>)
  40030a:	629a      	str	r2, [r3, #40]	; 0x28
  40030c:	4770      	bx	lr
  40030e:	bf00      	nop
  400310:	400e0400 	.word	0x400e0400

00400314 <pmc_is_locked_pllack>:
 * \retval 0 Not locked.
 * \retval 1 Locked.
 */
uint32_t pmc_is_locked_pllack(void)
{
	return (PMC->PMC_SR & PMC_SR_LOCKA);
  400314:	4b02      	ldr	r3, [pc, #8]	; (400320 <pmc_is_locked_pllack+0xc>)
  400316:	6e98      	ldr	r0, [r3, #104]	; 0x68
}
  400318:	f000 0002 	and.w	r0, r0, #2
  40031c:	4770      	bx	lr
  40031e:	bf00      	nop
  400320:	400e0400 	.word	0x400e0400

00400324 <Dummy_Handler>:
 * \brief Default interrupt handler for unused IRQs.
 */
void Dummy_Handler(void)
{
	while (1) {
	}
  400324:	e7fe      	b.n	400324 <Dummy_Handler>
  400326:	bf00      	nop

00400328 <Reset_Handler>:
/**
 * \brief This is the code that gets called on processor reset.
 * To initialize the device, and call the main() routine.
 */
void Reset_Handler(void)
{
  400328:	b508      	push	{r3, lr}

	/* Initialize the relocate segment */
	pSrc = &_etext;
	pDest = &_srelocate;

	if (pSrc > pDest) {
  40032a:	4b20      	ldr	r3, [pc, #128]	; (4003ac <Reset_Handler+0x84>)
  40032c:	4a20      	ldr	r2, [pc, #128]	; (4003b0 <Reset_Handler+0x88>)
  40032e:	429a      	cmp	r2, r3
  400330:	d913      	bls.n	40035a <Reset_Handler+0x32>
		for (; pDest < &_erelocate;) {
  400332:	4b20      	ldr	r3, [pc, #128]	; (4003b4 <Reset_Handler+0x8c>)
  400334:	4a1d      	ldr	r2, [pc, #116]	; (4003ac <Reset_Handler+0x84>)
  400336:	429a      	cmp	r2, r3
  400338:	d21f      	bcs.n	40037a <Reset_Handler+0x52>
  40033a:	4611      	mov	r1, r2
  40033c:	3204      	adds	r2, #4
  40033e:	3303      	adds	r3, #3
  400340:	1a9b      	subs	r3, r3, r2
  400342:	f023 0303 	bic.w	r3, r3, #3
  400346:	3304      	adds	r3, #4
  400348:	4a19      	ldr	r2, [pc, #100]	; (4003b0 <Reset_Handler+0x88>)
  40034a:	4413      	add	r3, r2
			*pDest++ = *pSrc++;
  40034c:	f852 0b04 	ldr.w	r0, [r2], #4
  400350:	f841 0b04 	str.w	r0, [r1], #4
	/* Initialize the relocate segment */
	pSrc = &_etext;
	pDest = &_srelocate;

	if (pSrc > pDest) {
		for (; pDest < &_erelocate;) {
  400354:	429a      	cmp	r2, r3
  400356:	d1f9      	bne.n	40034c <Reset_Handler+0x24>
  400358:	e00f      	b.n	40037a <Reset_Handler+0x52>
			*pDest++ = *pSrc++;
		}
	} else if (pSrc < pDest) {
  40035a:	4b14      	ldr	r3, [pc, #80]	; (4003ac <Reset_Handler+0x84>)
  40035c:	4a14      	ldr	r2, [pc, #80]	; (4003b0 <Reset_Handler+0x88>)
  40035e:	429a      	cmp	r2, r3
  400360:	d20b      	bcs.n	40037a <Reset_Handler+0x52>
		uint32_t nb_bytes = (uint32_t)&_erelocate - (uint32_t)&_srelocate;
  400362:	4b14      	ldr	r3, [pc, #80]	; (4003b4 <Reset_Handler+0x8c>)
  400364:	4a11      	ldr	r2, [pc, #68]	; (4003ac <Reset_Handler+0x84>)
  400366:	1a9a      	subs	r2, r3, r2
  400368:	4813      	ldr	r0, [pc, #76]	; (4003b8 <Reset_Handler+0x90>)
		pSrc = (uint32_t*)((uint32_t)pSrc + nb_bytes) - 1;
  40036a:	1881      	adds	r1, r0, r2
		pDest = (uint32_t*)((uint32_t)pDest + nb_bytes) - 1;
		for (;nb_bytes;nb_bytes -= 4) {
  40036c:	b12a      	cbz	r2, 40037a <Reset_Handler+0x52>
			*pDest-- = *pSrc--;
  40036e:	f851 2904 	ldr.w	r2, [r1], #-4
  400372:	f843 2d04 	str.w	r2, [r3, #-4]!
		}
	} else if (pSrc < pDest) {
		uint32_t nb_bytes = (uint32_t)&_erelocate - (uint32_t)&_srelocate;
		pSrc = (uint32_t*)((uint32_t)pSrc + nb_bytes) - 1;
		pDest = (uint32_t*)((uint32_t)pDest + nb_bytes) - 1;
		for (;nb_bytes;nb_bytes -= 4) {
  400376:	4281      	cmp	r1, r0
  400378:	d1f9      	bne.n	40036e <Reset_Handler+0x46>

    No Operation does nothing. This instruction can be used for code alignment purposes.
 */
__attribute__( ( always_inline ) ) __STATIC_INLINE void __NOP(void)
{
  __ASM volatile ("nop");
  40037a:	bf00      	nop
		}
	}
	__NOP();

	/* Clear the zero segment */
	for (pDest = &_szero; pDest < &_ezero;) {
  40037c:	4b0f      	ldr	r3, [pc, #60]	; (4003bc <Reset_Handler+0x94>)
  40037e:	4a10      	ldr	r2, [pc, #64]	; (4003c0 <Reset_Handler+0x98>)
  400380:	429a      	cmp	r2, r3
  400382:	d20b      	bcs.n	40039c <Reset_Handler+0x74>
  400384:	1d13      	adds	r3, r2, #4
  400386:	4a0f      	ldr	r2, [pc, #60]	; (4003c4 <Reset_Handler+0x9c>)
  400388:	1ad2      	subs	r2, r2, r3
  40038a:	f022 0203 	bic.w	r2, r2, #3
  40038e:	441a      	add	r2, r3
  400390:	3b04      	subs	r3, #4
		*pDest++ = 0;
  400392:	2100      	movs	r1, #0
  400394:	f843 1b04 	str.w	r1, [r3], #4
		}
	}
	__NOP();

	/* Clear the zero segment */
	for (pDest = &_szero; pDest < &_ezero;) {
  400398:	4293      	cmp	r3, r2
  40039a:	d1fb      	bne.n	400394 <Reset_Handler+0x6c>
		*pDest++ = 0;
	}

	/* Set the vector table base address */
	pSrc = (uint32_t *) & _sfixed;
	SCB->VTOR = ((uint32_t) pSrc);
  40039c:	4b0a      	ldr	r3, [pc, #40]	; (4003c8 <Reset_Handler+0xa0>)
  40039e:	4a0b      	ldr	r2, [pc, #44]	; (4003cc <Reset_Handler+0xa4>)
  4003a0:	609a      	str	r2, [r3, #8]

	/* Initialize the C library */
	__libc_init_array();
  4003a2:	4b0b      	ldr	r3, [pc, #44]	; (4003d0 <Reset_Handler+0xa8>)
  4003a4:	4798      	blx	r3

	/* Branch to main function */
	main();
  4003a6:	4b0b      	ldr	r3, [pc, #44]	; (4003d4 <Reset_Handler+0xac>)
  4003a8:	4798      	blx	r3

	/* Infinite loop */
	while (1);
  4003aa:	e7fe      	b.n	4003aa <Reset_Handler+0x82>
  4003ac:	20000000 	.word	0x20000000
  4003b0:	00400df8 	.word	0x00400df8
  4003b4:	20000438 	.word	0x20000438
  4003b8:	00400df4 	.word	0x00400df4
  4003bc:	200004cc 	.word	0x200004cc
  4003c0:	20000438 	.word	0x20000438
  4003c4:	200004cf 	.word	0x200004cf
  4003c8:	e000ed00 	.word	0xe000ed00
  4003cc:	00400000 	.word	0x00400000
  4003d0:	00400c85 	.word	0x00400c85
  4003d4:	004006bd 	.word	0x004006bd

004003d8 <SystemCoreClockUpdate>:
 * \brief Get Core Clock Frequency.
 */
void SystemCoreClockUpdate( void )
{
	/* Determine clock frequency according to clock register values */
	switch ( PMC->PMC_MCKR & (uint32_t) PMC_MCKR_CSS_Msk ) {
  4003d8:	4b3d      	ldr	r3, [pc, #244]	; (4004d0 <SystemCoreClockUpdate+0xf8>)
  4003da:	6b1b      	ldr	r3, [r3, #48]	; 0x30
  4003dc:	f003 0303 	and.w	r3, r3, #3
  4003e0:	2b03      	cmp	r3, #3
  4003e2:	d85d      	bhi.n	4004a0 <SystemCoreClockUpdate+0xc8>
  4003e4:	e8df f003 	tbb	[pc, r3]
  4003e8:	2b2b0e02 	.word	0x2b2b0e02
	case PMC_MCKR_CSS_SLOW_CLK: /* Slow clock */
			if ( SUPC->SUPC_SR & SUPC_SR_OSCSEL ) {
  4003ec:	4b39      	ldr	r3, [pc, #228]	; (4004d4 <SystemCoreClockUpdate+0xfc>)
  4003ee:	695b      	ldr	r3, [r3, #20]
  4003f0:	f013 0f80 	tst.w	r3, #128	; 0x80
				SystemCoreClock = CHIP_FREQ_XTAL_32K;
  4003f4:	bf14      	ite	ne
  4003f6:	f44f 4200 	movne.w	r2, #32768	; 0x8000
			} else {
				SystemCoreClock = CHIP_FREQ_SLCK_RC;
  4003fa:	f44f 42fa 	moveq.w	r2, #32000	; 0x7d00
  4003fe:	4b36      	ldr	r3, [pc, #216]	; (4004d8 <SystemCoreClockUpdate+0x100>)
  400400:	601a      	str	r2, [r3, #0]
  400402:	e04d      	b.n	4004a0 <SystemCoreClockUpdate+0xc8>
			}
		break;
		
	case PMC_MCKR_CSS_MAIN_CLK: /* Main clock */
		if ( PMC->CKGR_MOR & CKGR_MOR_MOSCSEL ) {
  400404:	4b32      	ldr	r3, [pc, #200]	; (4004d0 <SystemCoreClockUpdate+0xf8>)
  400406:	6a1b      	ldr	r3, [r3, #32]
  400408:	f013 7f80 	tst.w	r3, #16777216	; 0x1000000
  40040c:	d003      	beq.n	400416 <SystemCoreClockUpdate+0x3e>
			SystemCoreClock = CHIP_FREQ_XTAL;
  40040e:	4a33      	ldr	r2, [pc, #204]	; (4004dc <SystemCoreClockUpdate+0x104>)
  400410:	4b31      	ldr	r3, [pc, #196]	; (4004d8 <SystemCoreClockUpdate+0x100>)
  400412:	601a      	str	r2, [r3, #0]
  400414:	e044      	b.n	4004a0 <SystemCoreClockUpdate+0xc8>
		} else {
			SystemCoreClock = CHIP_FREQ_MAINCK_RC_4MHZ;
  400416:	4a32      	ldr	r2, [pc, #200]	; (4004e0 <SystemCoreClockUpdate+0x108>)
  400418:	4b2f      	ldr	r3, [pc, #188]	; (4004d8 <SystemCoreClockUpdate+0x100>)
  40041a:	601a      	str	r2, [r3, #0]
			
			switch ( PMC->CKGR_MOR & CKGR_MOR_MOSCRCF_Msk ) {
  40041c:	4b2c      	ldr	r3, [pc, #176]	; (4004d0 <SystemCoreClockUpdate+0xf8>)
  40041e:	6a1b      	ldr	r3, [r3, #32]
  400420:	f003 0370 	and.w	r3, r3, #112	; 0x70
  400424:	2b10      	cmp	r3, #16
  400426:	d002      	beq.n	40042e <SystemCoreClockUpdate+0x56>
  400428:	2b20      	cmp	r3, #32
  40042a:	d004      	beq.n	400436 <SystemCoreClockUpdate+0x5e>
  40042c:	e038      	b.n	4004a0 <SystemCoreClockUpdate+0xc8>
			case CKGR_MOR_MOSCRCF_4_MHz:
				SystemCoreClock = CHIP_FREQ_MAINCK_RC_4MHZ;
			break;
			
			case CKGR_MOR_MOSCRCF_8_MHz:
				SystemCoreClock = CHIP_FREQ_MAINCK_RC_8MHZ;
  40042e:	4a2d      	ldr	r2, [pc, #180]	; (4004e4 <SystemCoreClockUpdate+0x10c>)
  400430:	4b29      	ldr	r3, [pc, #164]	; (4004d8 <SystemCoreClockUpdate+0x100>)
  400432:	601a      	str	r2, [r3, #0]
			break;
  400434:	e034      	b.n	4004a0 <SystemCoreClockUpdate+0xc8>
			
			case CKGR_MOR_MOSCRCF_12_MHz:
				SystemCoreClock = CHIP_FREQ_MAINCK_RC_12MHZ;
  400436:	4a29      	ldr	r2, [pc, #164]	; (4004dc <SystemCoreClockUpdate+0x104>)
  400438:	4b27      	ldr	r3, [pc, #156]	; (4004d8 <SystemCoreClockUpdate+0x100>)
  40043a:	601a      	str	r2, [r3, #0]
			break;
  40043c:	e030      	b.n	4004a0 <SystemCoreClockUpdate+0xc8>
		}
		break;
		
	case PMC_MCKR_CSS_PLLA_CLK:	/* PLLA clock */
	case PMC_MCKR_CSS_PLLB_CLK:	/* PLLB clock */
			if ( PMC->CKGR_MOR & CKGR_MOR_MOSCSEL ) {
  40043e:	4b24      	ldr	r3, [pc, #144]	; (4004d0 <SystemCoreClockUpdate+0xf8>)
  400440:	6a1b      	ldr	r3, [r3, #32]
  400442:	f013 7f80 	tst.w	r3, #16777216	; 0x1000000
  400446:	d003      	beq.n	400450 <SystemCoreClockUpdate+0x78>
				SystemCoreClock = CHIP_FREQ_XTAL;
  400448:	4a24      	ldr	r2, [pc, #144]	; (4004dc <SystemCoreClockUpdate+0x104>)
  40044a:	4b23      	ldr	r3, [pc, #140]	; (4004d8 <SystemCoreClockUpdate+0x100>)
  40044c:	601a      	str	r2, [r3, #0]
  40044e:	e012      	b.n	400476 <SystemCoreClockUpdate+0x9e>
			} else {
				SystemCoreClock = CHIP_FREQ_MAINCK_RC_4MHZ;
  400450:	4a23      	ldr	r2, [pc, #140]	; (4004e0 <SystemCoreClockUpdate+0x108>)
  400452:	4b21      	ldr	r3, [pc, #132]	; (4004d8 <SystemCoreClockUpdate+0x100>)
  400454:	601a      	str	r2, [r3, #0]
				
				switch ( PMC->CKGR_MOR & CKGR_MOR_MOSCRCF_Msk ) {
  400456:	4b1e      	ldr	r3, [pc, #120]	; (4004d0 <SystemCoreClockUpdate+0xf8>)
  400458:	6a1b      	ldr	r3, [r3, #32]
  40045a:	f003 0370 	and.w	r3, r3, #112	; 0x70
  40045e:	2b10      	cmp	r3, #16
  400460:	d002      	beq.n	400468 <SystemCoreClockUpdate+0x90>
  400462:	2b20      	cmp	r3, #32
  400464:	d004      	beq.n	400470 <SystemCoreClockUpdate+0x98>
  400466:	e006      	b.n	400476 <SystemCoreClockUpdate+0x9e>
				case CKGR_MOR_MOSCRCF_4_MHz:
					SystemCoreClock = CHIP_FREQ_MAINCK_RC_4MHZ;
					break;
				
				case CKGR_MOR_MOSCRCF_8_MHz:
					SystemCoreClock = CHIP_FREQ_MAINCK_RC_8MHZ;
  400468:	4a1e      	ldr	r2, [pc, #120]	; (4004e4 <SystemCoreClockUpdate+0x10c>)
  40046a:	4b1b      	ldr	r3, [pc, #108]	; (4004d8 <SystemCoreClockUpdate+0x100>)
  40046c:	601a      	str	r2, [r3, #0]
					break;
  40046e:	e002      	b.n	400476 <SystemCoreClockUpdate+0x9e>
				
				case CKGR_MOR_MOSCRCF_12_MHz:
					SystemCoreClock = CHIP_FREQ_MAINCK_RC_12MHZ;
  400470:	4a1a      	ldr	r2, [pc, #104]	; (4004dc <SystemCoreClockUpdate+0x104>)
  400472:	4b19      	ldr	r3, [pc, #100]	; (4004d8 <SystemCoreClockUpdate+0x100>)
  400474:	601a      	str	r2, [r3, #0]
				default:
					break;
				}
			}
			
			if ( (uint32_t)(PMC->PMC_MCKR & (uint32_t) PMC_MCKR_CSS_Msk) ==
  400476:	4b16      	ldr	r3, [pc, #88]	; (4004d0 <SystemCoreClockUpdate+0xf8>)
  400478:	6b1b      	ldr	r3, [r3, #48]	; 0x30
  40047a:	f003 0303 	and.w	r3, r3, #3
  40047e:	2b02      	cmp	r3, #2
					PMC_MCKR_CSS_PLLA_CLK ) {
				SystemCoreClock *= ((((PMC->CKGR_PLLAR) & CKGR_PLLAR_MULA_Msk)
  400480:	4a13      	ldr	r2, [pc, #76]	; (4004d0 <SystemCoreClockUpdate+0xf8>)
  400482:	bf07      	ittee	eq
  400484:	6a93      	ldreq	r3, [r2, #40]	; 0x28
						>> CKGR_PLLAR_MULA_Pos) + 1U);
				SystemCoreClock /= ((((PMC->CKGR_PLLAR) & CKGR_PLLAR_DIVA_Msk)
  400486:	6a92      	ldreq	r2, [r2, #40]	; 0x28
						>> CKGR_PLLAR_DIVA_Pos));
			} else {
				SystemCoreClock *= ((((PMC->CKGR_PLLBR) & CKGR_PLLBR_MULB_Msk)
  400488:	6ad3      	ldrne	r3, [r2, #44]	; 0x2c
						>> CKGR_PLLBR_MULB_Pos) + 1U);
				SystemCoreClock /= ((((PMC->CKGR_PLLBR) & CKGR_PLLBR_DIVB_Msk)
  40048a:	6ad2      	ldrne	r2, [r2, #44]	; 0x2c
  40048c:	4812      	ldr	r0, [pc, #72]	; (4004d8 <SystemCoreClockUpdate+0x100>)
						>> CKGR_PLLAR_MULA_Pos) + 1U);
				SystemCoreClock /= ((((PMC->CKGR_PLLAR) & CKGR_PLLAR_DIVA_Msk)
						>> CKGR_PLLAR_DIVA_Pos));
			} else {
				SystemCoreClock *= ((((PMC->CKGR_PLLBR) & CKGR_PLLBR_MULB_Msk)
						>> CKGR_PLLBR_MULB_Pos) + 1U);
  40048e:	f3c3 410a 	ubfx	r1, r3, #16, #11
				SystemCoreClock *= ((((PMC->CKGR_PLLAR) & CKGR_PLLAR_MULA_Msk)
						>> CKGR_PLLAR_MULA_Pos) + 1U);
				SystemCoreClock /= ((((PMC->CKGR_PLLAR) & CKGR_PLLAR_DIVA_Msk)
						>> CKGR_PLLAR_DIVA_Pos));
			} else {
				SystemCoreClock *= ((((PMC->CKGR_PLLBR) & CKGR_PLLBR_MULB_Msk)
  400492:	6803      	ldr	r3, [r0, #0]
  400494:	fb01 3303 	mla	r3, r1, r3, r3
						>> CKGR_PLLBR_MULB_Pos) + 1U);
				SystemCoreClock /= ((((PMC->CKGR_PLLBR) & CKGR_PLLBR_DIVB_Msk)
						>> CKGR_PLLBR_DIVB_Pos));
  400498:	b2d2      	uxtb	r2, r2
				SystemCoreClock /= ((((PMC->CKGR_PLLAR) & CKGR_PLLAR_DIVA_Msk)
						>> CKGR_PLLAR_DIVA_Pos));
			} else {
				SystemCoreClock *= ((((PMC->CKGR_PLLBR) & CKGR_PLLBR_MULB_Msk)
						>> CKGR_PLLBR_MULB_Pos) + 1U);
				SystemCoreClock /= ((((PMC->CKGR_PLLBR) & CKGR_PLLBR_DIVB_Msk)
  40049a:	fbb3 f3f2 	udiv	r3, r3, r2
  40049e:	6003      	str	r3, [r0, #0]
		
	default:
		break;
	}

	if ( (PMC->PMC_MCKR & PMC_MCKR_PRES_Msk) == PMC_MCKR_PRES_CLK_3 ) {
  4004a0:	4b0b      	ldr	r3, [pc, #44]	; (4004d0 <SystemCoreClockUpdate+0xf8>)
  4004a2:	6b1b      	ldr	r3, [r3, #48]	; 0x30
  4004a4:	f003 0370 	and.w	r3, r3, #112	; 0x70
  4004a8:	2b70      	cmp	r3, #112	; 0x70
  4004aa:	d107      	bne.n	4004bc <SystemCoreClockUpdate+0xe4>
		SystemCoreClock /= 3U;
  4004ac:	4a0a      	ldr	r2, [pc, #40]	; (4004d8 <SystemCoreClockUpdate+0x100>)
  4004ae:	6813      	ldr	r3, [r2, #0]
  4004b0:	490d      	ldr	r1, [pc, #52]	; (4004e8 <SystemCoreClockUpdate+0x110>)
  4004b2:	fba1 1303 	umull	r1, r3, r1, r3
  4004b6:	085b      	lsrs	r3, r3, #1
  4004b8:	6013      	str	r3, [r2, #0]
  4004ba:	4770      	bx	lr
	} else {
		SystemCoreClock >>=
			((PMC->PMC_MCKR & PMC_MCKR_PRES_Msk) >> PMC_MCKR_PRES_Pos);
  4004bc:	4b04      	ldr	r3, [pc, #16]	; (4004d0 <SystemCoreClockUpdate+0xf8>)
  4004be:	6b1a      	ldr	r2, [r3, #48]	; 0x30
	}

	if ( (PMC->PMC_MCKR & PMC_MCKR_PRES_Msk) == PMC_MCKR_PRES_CLK_3 ) {
		SystemCoreClock /= 3U;
	} else {
		SystemCoreClock >>=
  4004c0:	4905      	ldr	r1, [pc, #20]	; (4004d8 <SystemCoreClockUpdate+0x100>)
			((PMC->PMC_MCKR & PMC_MCKR_PRES_Msk) >> PMC_MCKR_PRES_Pos);
  4004c2:	f3c2 1202 	ubfx	r2, r2, #4, #3
	}

	if ( (PMC->PMC_MCKR & PMC_MCKR_PRES_Msk) == PMC_MCKR_PRES_CLK_3 ) {
		SystemCoreClock /= 3U;
	} else {
		SystemCoreClock >>=
  4004c6:	680b      	ldr	r3, [r1, #0]
  4004c8:	40d3      	lsrs	r3, r2
  4004ca:	600b      	str	r3, [r1, #0]
  4004cc:	4770      	bx	lr
  4004ce:	bf00      	nop
  4004d0:	400e0400 	.word	0x400e0400
  4004d4:	400e1410 	.word	0x400e1410
  4004d8:	2000000c 	.word	0x2000000c
  4004dc:	00b71b00 	.word	0x00b71b00
  4004e0:	003d0900 	.word	0x003d0900
  4004e4:	007a1200 	.word	0x007a1200
  4004e8:	aaaaaaab 	.word	0xaaaaaaab

004004ec <system_init_flash>:
				}
			}
		}
	}
#else
	if ( ul_clk < CHIP_FREQ_FWS_0 ) {
  4004ec:	4b1a      	ldr	r3, [pc, #104]	; (400558 <system_init_flash+0x6c>)
  4004ee:	4298      	cmp	r0, r3
  4004f0:	d807      	bhi.n	400502 <system_init_flash+0x16>
		EFC0->EEFC_FMR = EEFC_FMR_FWS(0)|EEFC_FMR_CLOE;
  4004f2:	f04f 6380 	mov.w	r3, #67108864	; 0x4000000
  4004f6:	4a19      	ldr	r2, [pc, #100]	; (40055c <system_init_flash+0x70>)
  4004f8:	6013      	str	r3, [r2, #0]
		EFC1->EEFC_FMR = EEFC_FMR_FWS(0)|EEFC_FMR_CLOE;
  4004fa:	f502 7200 	add.w	r2, r2, #512	; 0x200
  4004fe:	6013      	str	r3, [r2, #0]
  400500:	4770      	bx	lr
	} else {
		if ( ul_clk < CHIP_FREQ_FWS_1 ) {
  400502:	4b17      	ldr	r3, [pc, #92]	; (400560 <system_init_flash+0x74>)
  400504:	4298      	cmp	r0, r3
  400506:	d806      	bhi.n	400516 <system_init_flash+0x2a>
			EFC0->EEFC_FMR = EEFC_FMR_FWS(1)|EEFC_FMR_CLOE;
  400508:	4b16      	ldr	r3, [pc, #88]	; (400564 <system_init_flash+0x78>)
  40050a:	4a14      	ldr	r2, [pc, #80]	; (40055c <system_init_flash+0x70>)
  40050c:	6013      	str	r3, [r2, #0]
			EFC1->EEFC_FMR = EEFC_FMR_FWS(1)|EEFC_FMR_CLOE;
  40050e:	f502 7200 	add.w	r2, r2, #512	; 0x200
  400512:	6013      	str	r3, [r2, #0]
  400514:	4770      	bx	lr
		} else {
			if ( ul_clk < CHIP_FREQ_FWS_2 ) {
  400516:	4b14      	ldr	r3, [pc, #80]	; (400568 <system_init_flash+0x7c>)
  400518:	4298      	cmp	r0, r3
  40051a:	d806      	bhi.n	40052a <system_init_flash+0x3e>
				EFC0->EEFC_FMR = EEFC_FMR_FWS(2)|EEFC_FMR_CLOE;
  40051c:	4b13      	ldr	r3, [pc, #76]	; (40056c <system_init_flash+0x80>)
  40051e:	4a0f      	ldr	r2, [pc, #60]	; (40055c <system_init_flash+0x70>)
  400520:	6013      	str	r3, [r2, #0]
				EFC1->EEFC_FMR = EEFC_FMR_FWS(2)|EEFC_FMR_CLOE;
  400522:	f502 7200 	add.w	r2, r2, #512	; 0x200
  400526:	6013      	str	r3, [r2, #0]
  400528:	4770      	bx	lr
			} else {
				if ( ul_clk < CHIP_FREQ_FWS_3 ) {
  40052a:	4b11      	ldr	r3, [pc, #68]	; (400570 <system_init_flash+0x84>)
  40052c:	4298      	cmp	r0, r3
  40052e:	d806      	bhi.n	40053e <system_init_flash+0x52>
					EFC0->EEFC_FMR = EEFC_FMR_FWS(3)|EEFC_FMR_CLOE;
  400530:	4b10      	ldr	r3, [pc, #64]	; (400574 <system_init_flash+0x88>)
  400532:	4a0a      	ldr	r2, [pc, #40]	; (40055c <system_init_flash+0x70>)
  400534:	6013      	str	r3, [r2, #0]
					EFC1->EEFC_FMR = EEFC_FMR_FWS(3)|EEFC_FMR_CLOE;
  400536:	f502 7200 	add.w	r2, r2, #512	; 0x200
  40053a:	6013      	str	r3, [r2, #0]
  40053c:	4770      	bx	lr
				} else {
					if ( ul_clk < CHIP_FREQ_FWS_4 ) {
  40053e:	4b0e      	ldr	r3, [pc, #56]	; (400578 <system_init_flash+0x8c>)
  400540:	4298      	cmp	r0, r3
						EFC0->EEFC_FMR = EEFC_FMR_FWS(4)|EEFC_FMR_CLOE;
  400542:	bf94      	ite	ls
  400544:	f04f 2304 	movls.w	r3, #67109888	; 0x4000400
						EFC1->EEFC_FMR = EEFC_FMR_FWS(4)|EEFC_FMR_CLOE;
					} else {
						EFC0->EEFC_FMR = EEFC_FMR_FWS(5)|EEFC_FMR_CLOE;
  400548:	4b0c      	ldrhi	r3, [pc, #48]	; (40057c <system_init_flash+0x90>)
  40054a:	4a04      	ldr	r2, [pc, #16]	; (40055c <system_init_flash+0x70>)
  40054c:	6013      	str	r3, [r2, #0]
						EFC1->EEFC_FMR = EEFC_FMR_FWS(5)|EEFC_FMR_CLOE;
  40054e:	f502 7200 	add.w	r2, r2, #512	; 0x200
  400552:	6013      	str	r3, [r2, #0]
  400554:	4770      	bx	lr
  400556:	bf00      	nop
  400558:	01312cff 	.word	0x01312cff
  40055c:	400e0a00 	.word	0x400e0a00
  400560:	026259ff 	.word	0x026259ff
  400564:	04000100 	.word	0x04000100
  400568:	039386ff 	.word	0x039386ff
  40056c:	04000200 	.word	0x04000200
  400570:	04c4b3ff 	.word	0x04c4b3ff
  400574:	04000300 	.word	0x04000300
  400578:	05f5e0ff 	.word	0x05f5e0ff
  40057c:	04000500 	.word	0x04000500

00400580 <Set_PIO>:
void Set_PIO()
{
	// 29.17.4 PMC Peripheral Clock Enable Register 0
	// 1: Enables the corresponding peripheral clock.
	// ID_PIOA = 11 - TAB 11-1
	PMC->PMC_PCER0 = ID_PIOA;
  400580:	4b0a      	ldr	r3, [pc, #40]	; (4005ac <Set_PIO+0x2c>)
  400582:	220b      	movs	r2, #11
  400584:	611a      	str	r2, [r3, #16]
	PMC->PMC_PCER0 = ID_PIOC;
  400586:	220d      	movs	r2, #13
  400588:	611a      	str	r2, [r3, #16]

	//31.6.1 PIO Enable Register
	// 1: Enables the PIO to control the corresponding pin (disables peripheral control of the pin).
	PIOA->PIO_PER = (1 << PIN_LED_BLUE );
  40058a:	f503 6320 	add.w	r3, r3, #2560	; 0xa00
  40058e:	f44f 2100 	mov.w	r1, #524288	; 0x80000
  400592:	6019      	str	r1, [r3, #0]
	PIOA->PIO_PER = (1 << PIN_LED_GREEN_RED );
  400594:	f44f 1280 	mov.w	r2, #1048576	; 0x100000
  400598:	601a      	str	r2, [r3, #0]

	// 31.6.46 PIO Write Protection Mode Register
	// 0: Disables the write protection if WPKEY corresponds to 0x50494F (PIO in ASCII).
	PIOA->PIO_WPMR = 0;
  40059a:	2000      	movs	r0, #0
  40059c:	f8c3 00e4 	str.w	r0, [r3, #228]	; 0xe4
	// 31.6.4 PIO Output Enable Register
	// value =
	//	 	1 : Enables the output on the I/O line.
	//	 	0 : do nothing
	
	PIOA->PIO_OER =  (1 << PIN_LED_BLUE );
  4005a0:	6119      	str	r1, [r3, #16]
	PIOA->PIO_OER =  (1 << PIN_LED_GREEN_RED );
  4005a2:	611a      	str	r2, [r3, #16]
	PIOC->PIO_OER =  (1 << PIN_LED_GREEN_RED );
  4005a4:	f503 6380 	add.w	r3, r3, #1024	; 0x400
  4005a8:	611a      	str	r2, [r3, #16]
  4005aa:	4770      	bx	lr
  4005ac:	400e0400 	.word	0x400e0400

004005b0 <Change_LED>:
		pin->PIO_SODR = (1 << led);
	}
}

void Change_LED(Pio *pin, int led)
{
  4005b0:	b082      	sub	sp, #8
	volatile int tmp = pin->PIO_ODSR;
  4005b2:	6b83      	ldr	r3, [r0, #56]	; 0x38
  4005b4:	9301      	str	r3, [sp, #4]
	
		if(pin == PIOC)
  4005b6:	4b10      	ldr	r3, [pc, #64]	; (4005f8 <Change_LED+0x48>)
  4005b8:	4298      	cmp	r0, r3
  4005ba:	d10c      	bne.n	4005d6 <Change_LED+0x26>
		{
			if((tmp >> led) == 1)
  4005bc:	9b01      	ldr	r3, [sp, #4]
  4005be:	410b      	asrs	r3, r1
  4005c0:	2b01      	cmp	r3, #1
  4005c2:	d103      	bne.n	4005cc <Change_LED+0x1c>
			{
				pin->PIO_CODR = (1 << led);
  4005c4:	408b      	lsls	r3, r1
  4005c6:	4a0c      	ldr	r2, [pc, #48]	; (4005f8 <Change_LED+0x48>)
  4005c8:	6353      	str	r3, [r2, #52]	; 0x34
  4005ca:	e013      	b.n	4005f4 <Change_LED+0x44>
			}
			else
			{
				pin->PIO_SODR = (1 << led);
  4005cc:	2301      	movs	r3, #1
  4005ce:	408b      	lsls	r3, r1
  4005d0:	4a09      	ldr	r2, [pc, #36]	; (4005f8 <Change_LED+0x48>)
  4005d2:	6313      	str	r3, [r2, #48]	; 0x30
  4005d4:	e00e      	b.n	4005f4 <Change_LED+0x44>
			}
		}
		else if(pin == PIOA)
  4005d6:	4b09      	ldr	r3, [pc, #36]	; (4005fc <Change_LED+0x4c>)
  4005d8:	4298      	cmp	r0, r3
  4005da:	d10b      	bne.n	4005f4 <Change_LED+0x44>
		{
			if((pin->PIO_ODSR << led) == 1)
  4005dc:	6b9b      	ldr	r3, [r3, #56]	; 0x38
  4005de:	408b      	lsls	r3, r1
  4005e0:	2b01      	cmp	r3, #1
  4005e2:	d103      	bne.n	4005ec <Change_LED+0x3c>
			{
				pin->PIO_SODR = (1 << led);
  4005e4:	408b      	lsls	r3, r1
  4005e6:	4a05      	ldr	r2, [pc, #20]	; (4005fc <Change_LED+0x4c>)
  4005e8:	6313      	str	r3, [r2, #48]	; 0x30
  4005ea:	e003      	b.n	4005f4 <Change_LED+0x44>
			}
			else
			{
				pin->PIO_CODR = (1 << led);
  4005ec:	2301      	movs	r3, #1
  4005ee:	408b      	lsls	r3, r1
  4005f0:	4a02      	ldr	r2, [pc, #8]	; (4005fc <Change_LED+0x4c>)
  4005f2:	6353      	str	r3, [r2, #52]	; 0x34
			}
		}
}
  4005f4:	b002      	add	sp, #8
  4005f6:	4770      	bx	lr
  4005f8:	400e1200 	.word	0x400e1200
  4005fc:	400e0e00 	.word	0x400e0e00

00400600 <Blink_Invert>:
	//PIOC->PIO_SODR = (1 << PIN_LED_GREEN_RED);
	delay_ms(time_ms);
}

void Blink_Invert(int time_ms)
{
  400600:	e92d 4df0 	stmdb	sp!, {r4, r5, r6, r7, r8, sl, fp, lr}
  400604:	4604      	mov	r4, r0
	Change_LED(PIOC, PIN_LED_GREEN_RED);
  400606:	f8df 80b0 	ldr.w	r8, [pc, #176]	; 4006b8 <Blink_Invert+0xb8>
  40060a:	4640      	mov	r0, r8
  40060c:	2114      	movs	r1, #20
  40060e:	4e26      	ldr	r6, [pc, #152]	; (4006a8 <Blink_Invert+0xa8>)
  400610:	47b0      	blx	r6
	Change_LED(PIOA, PIN_LED_BLUE);
  400612:	4f26      	ldr	r7, [pc, #152]	; (4006ac <Blink_Invert+0xac>)
  400614:	4638      	mov	r0, r7
  400616:	2113      	movs	r1, #19
  400618:	47b0      	blx	r6
	//PIOC->PIO_CODR = (1 << PIN_LED_GREEN_RED );
	//PIOA->PIO_CODR = (1 << PIN_LED_BLUE );
	delay_ms(time_ms);
  40061a:	46a2      	mov	sl, r4
  40061c:	ea4f 7be4 	mov.w	fp, r4, asr #31
  400620:	ea4f 01cb 	mov.w	r1, fp, lsl #3
  400624:	00e2      	lsls	r2, r4, #3
  400626:	ea41 7354 	orr.w	r3, r1, r4, lsr #29
  40062a:	015d      	lsls	r5, r3, #5
  40062c:	ea45 65d2 	orr.w	r5, r5, r2, lsr #27
  400630:	0154      	lsls	r4, r2, #5
  400632:	1aa4      	subs	r4, r4, r2
  400634:	eb65 0503 	sbc.w	r5, r5, r3
  400638:	01ab      	lsls	r3, r5, #6
  40063a:	ea43 6394 	orr.w	r3, r3, r4, lsr #26
  40063e:	01a2      	lsls	r2, r4, #6
  400640:	1b14      	subs	r4, r2, r4
  400642:	eb63 0505 	sbc.w	r5, r3, r5
  400646:	eb14 040a 	adds.w	r4, r4, sl
  40064a:	eb45 050b 	adc.w	r5, r5, fp
  40064e:	012b      	lsls	r3, r5, #4
  400650:	ea43 7314 	orr.w	r3, r3, r4, lsr #28
  400654:	0122      	lsls	r2, r4, #4
  400656:	1b12      	subs	r2, r2, r4
  400658:	eb63 0305 	sbc.w	r3, r3, r5
  40065c:	0259      	lsls	r1, r3, #9
  40065e:	ea41 51d2 	orr.w	r1, r1, r2, lsr #23
  400662:	0250      	lsls	r0, r2, #9
  400664:	4602      	mov	r2, r0
  400666:	460b      	mov	r3, r1
  400668:	f243 60af 	movw	r0, #13999	; 0x36af
  40066c:	2100      	movs	r1, #0
  40066e:	1880      	adds	r0, r0, r2
  400670:	4159      	adcs	r1, r3
  400672:	f243 62b0 	movw	r2, #14000	; 0x36b0
  400676:	2300      	movs	r3, #0
  400678:	4c0d      	ldr	r4, [pc, #52]	; (4006b0 <Blink_Invert+0xb0>)
  40067a:	47a0      	blx	r4
  40067c:	4605      	mov	r5, r0
  40067e:	4c0d      	ldr	r4, [pc, #52]	; (4006b4 <Blink_Invert+0xb4>)
  400680:	47a0      	blx	r4
	Change_LED(PIOA, PIN_LED_BLUE);
  400682:	4638      	mov	r0, r7
  400684:	2113      	movs	r1, #19
  400686:	47b0      	blx	r6
	Change_LED(PIOA, PIN_LED_GREEN_RED);
  400688:	4638      	mov	r0, r7
  40068a:	2114      	movs	r1, #20
  40068c:	47b0      	blx	r6
	//PIOA->PIO_SODR = (1 << PIN_LED_BLUE );
	//PIOA->PIO_CODR = (1 << PIN_LED_GREEN_RED);
	delay_ms(time_ms);
  40068e:	4628      	mov	r0, r5
  400690:	47a0      	blx	r4
	Change_LED(PIOA, PIN_LED_GREEN_RED);
  400692:	4638      	mov	r0, r7
  400694:	2114      	movs	r1, #20
  400696:	47b0      	blx	r6
	Change_LED(PIOC, PIN_LED_GREEN_RED);
  400698:	4640      	mov	r0, r8
  40069a:	2114      	movs	r1, #20
  40069c:	47b0      	blx	r6
	//PIOA->PIO_SODR = (1 << PIN_LED_GREEN_RED );
	//PIOC->PIO_SODR = (1 << PIN_LED_GREEN_RED);
	delay_ms(time_ms);
  40069e:	4628      	mov	r0, r5
  4006a0:	47a0      	blx	r4
  4006a2:	e8bd 8df0 	ldmia.w	sp!, {r4, r5, r6, r7, r8, sl, fp, pc}
  4006a6:	bf00      	nop
  4006a8:	004005b1 	.word	0x004005b1
  4006ac:	400e0e00 	.word	0x400e0e00
  4006b0:	004006e9 	.word	0x004006e9
  4006b4:	20000001 	.word	0x20000001
  4006b8:	400e1200 	.word	0x400e1200

004006bc <main>:
}


int main (void)
{
  4006bc:	b508      	push	{r3, lr}

	/**
	* Inicializando o clock do uP
	*/
	sysclk_init();
  4006be:	4b06      	ldr	r3, [pc, #24]	; (4006d8 <main+0x1c>)
  4006c0:	4798      	blx	r3
	
	/** 
	*  Desabilitando o WathDog do uP
	*/
	WDT->WDT_MR = WDT_MR_WDDIS;
  4006c2:	f44f 4200 	mov.w	r2, #32768	; 0x8000
  4006c6:	4b05      	ldr	r3, [pc, #20]	; (4006dc <main+0x20>)
  4006c8:	605a      	str	r2, [r3, #4]
	
	Set_PIO();
  4006ca:	4b05      	ldr	r3, [pc, #20]	; (4006e0 <main+0x24>)
  4006cc:	4798      	blx	r3
	
	/**
	*	Loop infinito
	*/
		while(1){
			Blink_Invert(100);
  4006ce:	2564      	movs	r5, #100	; 0x64
  4006d0:	4c04      	ldr	r4, [pc, #16]	; (4006e4 <main+0x28>)
  4006d2:	4628      	mov	r0, r5
  4006d4:	47a0      	blx	r4
             * Utilize a função delay_ms para fazer o led piscar na frequência
             * escolhida por você.
             */
            //delay_ms();
		
	}
  4006d6:	e7fc      	b.n	4006d2 <main+0x16>
  4006d8:	00400129 	.word	0x00400129
  4006dc:	400e1450 	.word	0x400e1450
  4006e0:	00400581 	.word	0x00400581
  4006e4:	00400601 	.word	0x00400601

004006e8 <__aeabi_uldivmod>:
  4006e8:	b953      	cbnz	r3, 400700 <__aeabi_uldivmod+0x18>
  4006ea:	b94a      	cbnz	r2, 400700 <__aeabi_uldivmod+0x18>
  4006ec:	2900      	cmp	r1, #0
  4006ee:	bf08      	it	eq
  4006f0:	2800      	cmpeq	r0, #0
  4006f2:	bf1c      	itt	ne
  4006f4:	f04f 31ff 	movne.w	r1, #4294967295
  4006f8:	f04f 30ff 	movne.w	r0, #4294967295
  4006fc:	f000 b83c 	b.w	400778 <__aeabi_idiv0>
  400700:	b082      	sub	sp, #8
  400702:	46ec      	mov	ip, sp
  400704:	e92d 5000 	stmdb	sp!, {ip, lr}
  400708:	f000 f81e 	bl	400748 <__gnu_uldivmod_helper>
  40070c:	f8dd e004 	ldr.w	lr, [sp, #4]
  400710:	b002      	add	sp, #8
  400712:	bc0c      	pop	{r2, r3}
  400714:	4770      	bx	lr
  400716:	bf00      	nop

00400718 <__gnu_ldivmod_helper>:
  400718:	e92d 41f0 	stmdb	sp!, {r4, r5, r6, r7, r8, lr}
  40071c:	9c06      	ldr	r4, [sp, #24]
  40071e:	4615      	mov	r5, r2
  400720:	4606      	mov	r6, r0
  400722:	460f      	mov	r7, r1
  400724:	4698      	mov	r8, r3
  400726:	f000 f829 	bl	40077c <__divdi3>
  40072a:	fb05 f301 	mul.w	r3, r5, r1
  40072e:	fb00 3808 	mla	r8, r0, r8, r3
  400732:	fba5 2300 	umull	r2, r3, r5, r0
  400736:	1ab2      	subs	r2, r6, r2
  400738:	4443      	add	r3, r8
  40073a:	eb67 0303 	sbc.w	r3, r7, r3
  40073e:	e9c4 2300 	strd	r2, r3, [r4]
  400742:	e8bd 81f0 	ldmia.w	sp!, {r4, r5, r6, r7, r8, pc}
  400746:	bf00      	nop

00400748 <__gnu_uldivmod_helper>:
  400748:	e92d 41f0 	stmdb	sp!, {r4, r5, r6, r7, r8, lr}
  40074c:	9c06      	ldr	r4, [sp, #24]
  40074e:	4690      	mov	r8, r2
  400750:	4606      	mov	r6, r0
  400752:	460f      	mov	r7, r1
  400754:	461d      	mov	r5, r3
  400756:	f000 f95f 	bl	400a18 <__udivdi3>
  40075a:	fb00 f505 	mul.w	r5, r0, r5
  40075e:	fba0 2308 	umull	r2, r3, r0, r8
  400762:	fb08 5501 	mla	r5, r8, r1, r5
  400766:	1ab2      	subs	r2, r6, r2
  400768:	442b      	add	r3, r5
  40076a:	eb67 0303 	sbc.w	r3, r7, r3
  40076e:	e9c4 2300 	strd	r2, r3, [r4]
  400772:	e8bd 81f0 	ldmia.w	sp!, {r4, r5, r6, r7, r8, pc}
  400776:	bf00      	nop

00400778 <__aeabi_idiv0>:
  400778:	4770      	bx	lr
  40077a:	bf00      	nop

0040077c <__divdi3>:
  40077c:	2900      	cmp	r1, #0
  40077e:	e92d 43f0 	stmdb	sp!, {r4, r5, r6, r7, r8, r9, lr}
  400782:	f2c0 80a6 	blt.w	4008d2 <__divdi3+0x156>
  400786:	2600      	movs	r6, #0
  400788:	2b00      	cmp	r3, #0
  40078a:	f2c0 809c 	blt.w	4008c6 <__divdi3+0x14a>
  40078e:	4688      	mov	r8, r1
  400790:	4694      	mov	ip, r2
  400792:	469e      	mov	lr, r3
  400794:	4615      	mov	r5, r2
  400796:	4604      	mov	r4, r0
  400798:	460f      	mov	r7, r1
  40079a:	2b00      	cmp	r3, #0
  40079c:	d13d      	bne.n	40081a <__divdi3+0x9e>
  40079e:	428a      	cmp	r2, r1
  4007a0:	d959      	bls.n	400856 <__divdi3+0xda>
  4007a2:	fab2 f382 	clz	r3, r2
  4007a6:	b13b      	cbz	r3, 4007b8 <__divdi3+0x3c>
  4007a8:	f1c3 0220 	rsb	r2, r3, #32
  4007ac:	409f      	lsls	r7, r3
  4007ae:	fa20 f202 	lsr.w	r2, r0, r2
  4007b2:	409d      	lsls	r5, r3
  4007b4:	4317      	orrs	r7, r2
  4007b6:	409c      	lsls	r4, r3
  4007b8:	0c29      	lsrs	r1, r5, #16
  4007ba:	0c22      	lsrs	r2, r4, #16
  4007bc:	fbb7 fef1 	udiv	lr, r7, r1
  4007c0:	b2a8      	uxth	r0, r5
  4007c2:	fb01 771e 	mls	r7, r1, lr, r7
  4007c6:	ea42 4707 	orr.w	r7, r2, r7, lsl #16
  4007ca:	fb00 f30e 	mul.w	r3, r0, lr
  4007ce:	42bb      	cmp	r3, r7
  4007d0:	d90a      	bls.n	4007e8 <__divdi3+0x6c>
  4007d2:	197f      	adds	r7, r7, r5
  4007d4:	f10e 32ff 	add.w	r2, lr, #4294967295
  4007d8:	f080 8105 	bcs.w	4009e6 <__divdi3+0x26a>
  4007dc:	42bb      	cmp	r3, r7
  4007de:	f240 8102 	bls.w	4009e6 <__divdi3+0x26a>
  4007e2:	f1ae 0e02 	sub.w	lr, lr, #2
  4007e6:	442f      	add	r7, r5
  4007e8:	1aff      	subs	r7, r7, r3
  4007ea:	b2a4      	uxth	r4, r4
  4007ec:	fbb7 f3f1 	udiv	r3, r7, r1
  4007f0:	fb01 7713 	mls	r7, r1, r3, r7
  4007f4:	ea44 4707 	orr.w	r7, r4, r7, lsl #16
  4007f8:	fb00 f003 	mul.w	r0, r0, r3
  4007fc:	42b8      	cmp	r0, r7
  4007fe:	d908      	bls.n	400812 <__divdi3+0x96>
  400800:	197f      	adds	r7, r7, r5
  400802:	f103 32ff 	add.w	r2, r3, #4294967295
  400806:	f080 80f0 	bcs.w	4009ea <__divdi3+0x26e>
  40080a:	42b8      	cmp	r0, r7
  40080c:	f240 80ed 	bls.w	4009ea <__divdi3+0x26e>
  400810:	3b02      	subs	r3, #2
  400812:	ea43 430e 	orr.w	r3, r3, lr, lsl #16
  400816:	2200      	movs	r2, #0
  400818:	e003      	b.n	400822 <__divdi3+0xa6>
  40081a:	428b      	cmp	r3, r1
  40081c:	d90f      	bls.n	40083e <__divdi3+0xc2>
  40081e:	2200      	movs	r2, #0
  400820:	4613      	mov	r3, r2
  400822:	1c34      	adds	r4, r6, #0
  400824:	bf18      	it	ne
  400826:	2401      	movne	r4, #1
  400828:	4260      	negs	r0, r4
  40082a:	f04f 0500 	mov.w	r5, #0
  40082e:	eb65 0145 	sbc.w	r1, r5, r5, lsl #1
  400832:	4058      	eors	r0, r3
  400834:	4051      	eors	r1, r2
  400836:	1900      	adds	r0, r0, r4
  400838:	4169      	adcs	r1, r5
  40083a:	e8bd 83f0 	ldmia.w	sp!, {r4, r5, r6, r7, r8, r9, pc}
  40083e:	fab3 f283 	clz	r2, r3
  400842:	2a00      	cmp	r2, #0
  400844:	f040 8086 	bne.w	400954 <__divdi3+0x1d8>
  400848:	428b      	cmp	r3, r1
  40084a:	d302      	bcc.n	400852 <__divdi3+0xd6>
  40084c:	4584      	cmp	ip, r0
  40084e:	f200 80db 	bhi.w	400a08 <__divdi3+0x28c>
  400852:	2301      	movs	r3, #1
  400854:	e7e5      	b.n	400822 <__divdi3+0xa6>
  400856:	b912      	cbnz	r2, 40085e <__divdi3+0xe2>
  400858:	2301      	movs	r3, #1
  40085a:	fbb3 f5f2 	udiv	r5, r3, r2
  40085e:	fab5 f085 	clz	r0, r5
  400862:	2800      	cmp	r0, #0
  400864:	d13b      	bne.n	4008de <__divdi3+0x162>
  400866:	1b78      	subs	r0, r7, r5
  400868:	ea4f 4e15 	mov.w	lr, r5, lsr #16
  40086c:	fa1f fc85 	uxth.w	ip, r5
  400870:	2201      	movs	r2, #1
  400872:	fbb0 f8fe 	udiv	r8, r0, lr
  400876:	0c21      	lsrs	r1, r4, #16
  400878:	fb0e 0718 	mls	r7, lr, r8, r0
  40087c:	ea41 4707 	orr.w	r7, r1, r7, lsl #16
  400880:	fb0c f308 	mul.w	r3, ip, r8
  400884:	42bb      	cmp	r3, r7
  400886:	d907      	bls.n	400898 <__divdi3+0x11c>
  400888:	197f      	adds	r7, r7, r5
  40088a:	f108 31ff 	add.w	r1, r8, #4294967295
  40088e:	d202      	bcs.n	400896 <__divdi3+0x11a>
  400890:	42bb      	cmp	r3, r7
  400892:	f200 80bd 	bhi.w	400a10 <__divdi3+0x294>
  400896:	4688      	mov	r8, r1
  400898:	1aff      	subs	r7, r7, r3
  40089a:	b2a4      	uxth	r4, r4
  40089c:	fbb7 f3fe 	udiv	r3, r7, lr
  4008a0:	fb0e 7713 	mls	r7, lr, r3, r7
  4008a4:	ea44 4707 	orr.w	r7, r4, r7, lsl #16
  4008a8:	fb0c fc03 	mul.w	ip, ip, r3
  4008ac:	45bc      	cmp	ip, r7
  4008ae:	d907      	bls.n	4008c0 <__divdi3+0x144>
  4008b0:	197f      	adds	r7, r7, r5
  4008b2:	f103 31ff 	add.w	r1, r3, #4294967295
  4008b6:	d202      	bcs.n	4008be <__divdi3+0x142>
  4008b8:	45bc      	cmp	ip, r7
  4008ba:	f200 80a7 	bhi.w	400a0c <__divdi3+0x290>
  4008be:	460b      	mov	r3, r1
  4008c0:	ea43 4308 	orr.w	r3, r3, r8, lsl #16
  4008c4:	e7ad      	b.n	400822 <__divdi3+0xa6>
  4008c6:	4252      	negs	r2, r2
  4008c8:	ea6f 0606 	mvn.w	r6, r6
  4008cc:	eb63 0343 	sbc.w	r3, r3, r3, lsl #1
  4008d0:	e75d      	b.n	40078e <__divdi3+0x12>
  4008d2:	4240      	negs	r0, r0
  4008d4:	eb61 0141 	sbc.w	r1, r1, r1, lsl #1
  4008d8:	f04f 36ff 	mov.w	r6, #4294967295
  4008dc:	e754      	b.n	400788 <__divdi3+0xc>
  4008de:	f1c0 0220 	rsb	r2, r0, #32
  4008e2:	fa24 f102 	lsr.w	r1, r4, r2
  4008e6:	fa07 f300 	lsl.w	r3, r7, r0
  4008ea:	4085      	lsls	r5, r0
  4008ec:	ea4f 4e15 	mov.w	lr, r5, lsr #16
  4008f0:	40d7      	lsrs	r7, r2
  4008f2:	4319      	orrs	r1, r3
  4008f4:	fbb7 f2fe 	udiv	r2, r7, lr
  4008f8:	0c0b      	lsrs	r3, r1, #16
  4008fa:	fb0e 7712 	mls	r7, lr, r2, r7
  4008fe:	fa1f fc85 	uxth.w	ip, r5
  400902:	ea43 4307 	orr.w	r3, r3, r7, lsl #16
  400906:	fb0c f702 	mul.w	r7, ip, r2
  40090a:	429f      	cmp	r7, r3
  40090c:	fa04 f400 	lsl.w	r4, r4, r0
  400910:	d907      	bls.n	400922 <__divdi3+0x1a6>
  400912:	195b      	adds	r3, r3, r5
  400914:	f102 30ff 	add.w	r0, r2, #4294967295
  400918:	d274      	bcs.n	400a04 <__divdi3+0x288>
  40091a:	429f      	cmp	r7, r3
  40091c:	d972      	bls.n	400a04 <__divdi3+0x288>
  40091e:	3a02      	subs	r2, #2
  400920:	442b      	add	r3, r5
  400922:	1bdf      	subs	r7, r3, r7
  400924:	b289      	uxth	r1, r1
  400926:	fbb7 f8fe 	udiv	r8, r7, lr
  40092a:	fb0e 7318 	mls	r3, lr, r8, r7
  40092e:	ea41 4303 	orr.w	r3, r1, r3, lsl #16
  400932:	fb0c f708 	mul.w	r7, ip, r8
  400936:	429f      	cmp	r7, r3
  400938:	d908      	bls.n	40094c <__divdi3+0x1d0>
  40093a:	195b      	adds	r3, r3, r5
  40093c:	f108 31ff 	add.w	r1, r8, #4294967295
  400940:	d25c      	bcs.n	4009fc <__divdi3+0x280>
  400942:	429f      	cmp	r7, r3
  400944:	d95a      	bls.n	4009fc <__divdi3+0x280>
  400946:	f1a8 0802 	sub.w	r8, r8, #2
  40094a:	442b      	add	r3, r5
  40094c:	1bd8      	subs	r0, r3, r7
  40094e:	ea48 4202 	orr.w	r2, r8, r2, lsl #16
  400952:	e78e      	b.n	400872 <__divdi3+0xf6>
  400954:	f1c2 0320 	rsb	r3, r2, #32
  400958:	fa2c f103 	lsr.w	r1, ip, r3
  40095c:	fa0e fe02 	lsl.w	lr, lr, r2
  400960:	fa20 f703 	lsr.w	r7, r0, r3
  400964:	ea41 0e0e 	orr.w	lr, r1, lr
  400968:	fa08 f002 	lsl.w	r0, r8, r2
  40096c:	fa28 f103 	lsr.w	r1, r8, r3
  400970:	ea4f 451e 	mov.w	r5, lr, lsr #16
  400974:	4338      	orrs	r0, r7
  400976:	fbb1 f8f5 	udiv	r8, r1, r5
  40097a:	0c03      	lsrs	r3, r0, #16
  40097c:	fb05 1118 	mls	r1, r5, r8, r1
  400980:	fa1f f78e 	uxth.w	r7, lr
  400984:	ea43 4101 	orr.w	r1, r3, r1, lsl #16
  400988:	fb07 f308 	mul.w	r3, r7, r8
  40098c:	428b      	cmp	r3, r1
  40098e:	fa0c fc02 	lsl.w	ip, ip, r2
  400992:	d909      	bls.n	4009a8 <__divdi3+0x22c>
  400994:	eb11 010e 	adds.w	r1, r1, lr
  400998:	f108 39ff 	add.w	r9, r8, #4294967295
  40099c:	d230      	bcs.n	400a00 <__divdi3+0x284>
  40099e:	428b      	cmp	r3, r1
  4009a0:	d92e      	bls.n	400a00 <__divdi3+0x284>
  4009a2:	f1a8 0802 	sub.w	r8, r8, #2
  4009a6:	4471      	add	r1, lr
  4009a8:	1ac9      	subs	r1, r1, r3
  4009aa:	b280      	uxth	r0, r0
  4009ac:	fbb1 f3f5 	udiv	r3, r1, r5
  4009b0:	fb05 1113 	mls	r1, r5, r3, r1
  4009b4:	ea40 4101 	orr.w	r1, r0, r1, lsl #16
  4009b8:	fb07 f703 	mul.w	r7, r7, r3
  4009bc:	428f      	cmp	r7, r1
  4009be:	d908      	bls.n	4009d2 <__divdi3+0x256>
  4009c0:	eb11 010e 	adds.w	r1, r1, lr
  4009c4:	f103 30ff 	add.w	r0, r3, #4294967295
  4009c8:	d216      	bcs.n	4009f8 <__divdi3+0x27c>
  4009ca:	428f      	cmp	r7, r1
  4009cc:	d914      	bls.n	4009f8 <__divdi3+0x27c>
  4009ce:	3b02      	subs	r3, #2
  4009d0:	4471      	add	r1, lr
  4009d2:	ea43 4308 	orr.w	r3, r3, r8, lsl #16
  4009d6:	1bc9      	subs	r1, r1, r7
  4009d8:	fba3 890c 	umull	r8, r9, r3, ip
  4009dc:	4549      	cmp	r1, r9
  4009de:	d309      	bcc.n	4009f4 <__divdi3+0x278>
  4009e0:	d005      	beq.n	4009ee <__divdi3+0x272>
  4009e2:	2200      	movs	r2, #0
  4009e4:	e71d      	b.n	400822 <__divdi3+0xa6>
  4009e6:	4696      	mov	lr, r2
  4009e8:	e6fe      	b.n	4007e8 <__divdi3+0x6c>
  4009ea:	4613      	mov	r3, r2
  4009ec:	e711      	b.n	400812 <__divdi3+0x96>
  4009ee:	4094      	lsls	r4, r2
  4009f0:	4544      	cmp	r4, r8
  4009f2:	d2f6      	bcs.n	4009e2 <__divdi3+0x266>
  4009f4:	3b01      	subs	r3, #1
  4009f6:	e7f4      	b.n	4009e2 <__divdi3+0x266>
  4009f8:	4603      	mov	r3, r0
  4009fa:	e7ea      	b.n	4009d2 <__divdi3+0x256>
  4009fc:	4688      	mov	r8, r1
  4009fe:	e7a5      	b.n	40094c <__divdi3+0x1d0>
  400a00:	46c8      	mov	r8, r9
  400a02:	e7d1      	b.n	4009a8 <__divdi3+0x22c>
  400a04:	4602      	mov	r2, r0
  400a06:	e78c      	b.n	400922 <__divdi3+0x1a6>
  400a08:	4613      	mov	r3, r2
  400a0a:	e70a      	b.n	400822 <__divdi3+0xa6>
  400a0c:	3b02      	subs	r3, #2
  400a0e:	e757      	b.n	4008c0 <__divdi3+0x144>
  400a10:	f1a8 0802 	sub.w	r8, r8, #2
  400a14:	442f      	add	r7, r5
  400a16:	e73f      	b.n	400898 <__divdi3+0x11c>

00400a18 <__udivdi3>:
  400a18:	e92d 41f0 	stmdb	sp!, {r4, r5, r6, r7, r8, lr}
  400a1c:	2b00      	cmp	r3, #0
  400a1e:	d144      	bne.n	400aaa <__udivdi3+0x92>
  400a20:	428a      	cmp	r2, r1
  400a22:	4615      	mov	r5, r2
  400a24:	4604      	mov	r4, r0
  400a26:	d94f      	bls.n	400ac8 <__udivdi3+0xb0>
  400a28:	fab2 f782 	clz	r7, r2
  400a2c:	460e      	mov	r6, r1
  400a2e:	b14f      	cbz	r7, 400a44 <__udivdi3+0x2c>
  400a30:	f1c7 0320 	rsb	r3, r7, #32
  400a34:	40b9      	lsls	r1, r7
  400a36:	fa20 f603 	lsr.w	r6, r0, r3
  400a3a:	fa02 f507 	lsl.w	r5, r2, r7
  400a3e:	430e      	orrs	r6, r1
  400a40:	fa00 f407 	lsl.w	r4, r0, r7
  400a44:	ea4f 4e15 	mov.w	lr, r5, lsr #16
  400a48:	0c23      	lsrs	r3, r4, #16
  400a4a:	fbb6 f0fe 	udiv	r0, r6, lr
  400a4e:	b2af      	uxth	r7, r5
  400a50:	fb0e 6110 	mls	r1, lr, r0, r6
  400a54:	ea43 4301 	orr.w	r3, r3, r1, lsl #16
  400a58:	fb07 f100 	mul.w	r1, r7, r0
  400a5c:	4299      	cmp	r1, r3
  400a5e:	d909      	bls.n	400a74 <__udivdi3+0x5c>
  400a60:	195b      	adds	r3, r3, r5
  400a62:	f100 32ff 	add.w	r2, r0, #4294967295
  400a66:	f080 80ec 	bcs.w	400c42 <__udivdi3+0x22a>
  400a6a:	4299      	cmp	r1, r3
  400a6c:	f240 80e9 	bls.w	400c42 <__udivdi3+0x22a>
  400a70:	3802      	subs	r0, #2
  400a72:	442b      	add	r3, r5
  400a74:	1a5a      	subs	r2, r3, r1
  400a76:	b2a4      	uxth	r4, r4
  400a78:	fbb2 f3fe 	udiv	r3, r2, lr
  400a7c:	fb0e 2213 	mls	r2, lr, r3, r2
  400a80:	ea44 4202 	orr.w	r2, r4, r2, lsl #16
  400a84:	fb07 f703 	mul.w	r7, r7, r3
  400a88:	4297      	cmp	r7, r2
  400a8a:	d908      	bls.n	400a9e <__udivdi3+0x86>
  400a8c:	1952      	adds	r2, r2, r5
  400a8e:	f103 31ff 	add.w	r1, r3, #4294967295
  400a92:	f080 80d8 	bcs.w	400c46 <__udivdi3+0x22e>
  400a96:	4297      	cmp	r7, r2
  400a98:	f240 80d5 	bls.w	400c46 <__udivdi3+0x22e>
  400a9c:	3b02      	subs	r3, #2
  400a9e:	ea43 4000 	orr.w	r0, r3, r0, lsl #16
  400aa2:	2600      	movs	r6, #0
  400aa4:	4631      	mov	r1, r6
  400aa6:	e8bd 81f0 	ldmia.w	sp!, {r4, r5, r6, r7, r8, pc}
  400aaa:	428b      	cmp	r3, r1
  400aac:	d847      	bhi.n	400b3e <__udivdi3+0x126>
  400aae:	fab3 f683 	clz	r6, r3
  400ab2:	2e00      	cmp	r6, #0
  400ab4:	d148      	bne.n	400b48 <__udivdi3+0x130>
  400ab6:	428b      	cmp	r3, r1
  400ab8:	d302      	bcc.n	400ac0 <__udivdi3+0xa8>
  400aba:	4282      	cmp	r2, r0
  400abc:	f200 80cd 	bhi.w	400c5a <__udivdi3+0x242>
  400ac0:	2001      	movs	r0, #1
  400ac2:	4631      	mov	r1, r6
  400ac4:	e8bd 81f0 	ldmia.w	sp!, {r4, r5, r6, r7, r8, pc}
  400ac8:	b912      	cbnz	r2, 400ad0 <__udivdi3+0xb8>
  400aca:	2501      	movs	r5, #1
  400acc:	fbb5 f5f2 	udiv	r5, r5, r2
  400ad0:	fab5 f885 	clz	r8, r5
  400ad4:	f1b8 0f00 	cmp.w	r8, #0
  400ad8:	d177      	bne.n	400bca <__udivdi3+0x1b2>
  400ada:	1b4a      	subs	r2, r1, r5
  400adc:	ea4f 4e15 	mov.w	lr, r5, lsr #16
  400ae0:	b2af      	uxth	r7, r5
  400ae2:	2601      	movs	r6, #1
  400ae4:	fbb2 f0fe 	udiv	r0, r2, lr
  400ae8:	0c23      	lsrs	r3, r4, #16
  400aea:	fb0e 2110 	mls	r1, lr, r0, r2
  400aee:	ea43 4101 	orr.w	r1, r3, r1, lsl #16
  400af2:	fb07 f300 	mul.w	r3, r7, r0
  400af6:	428b      	cmp	r3, r1
  400af8:	d907      	bls.n	400b0a <__udivdi3+0xf2>
  400afa:	1949      	adds	r1, r1, r5
  400afc:	f100 32ff 	add.w	r2, r0, #4294967295
  400b00:	d202      	bcs.n	400b08 <__udivdi3+0xf0>
  400b02:	428b      	cmp	r3, r1
  400b04:	f200 80ba 	bhi.w	400c7c <__udivdi3+0x264>
  400b08:	4610      	mov	r0, r2
  400b0a:	1ac9      	subs	r1, r1, r3
  400b0c:	b2a4      	uxth	r4, r4
  400b0e:	fbb1 f3fe 	udiv	r3, r1, lr
  400b12:	fb0e 1113 	mls	r1, lr, r3, r1
  400b16:	ea44 4401 	orr.w	r4, r4, r1, lsl #16
  400b1a:	fb07 f703 	mul.w	r7, r7, r3
  400b1e:	42a7      	cmp	r7, r4
  400b20:	d908      	bls.n	400b34 <__udivdi3+0x11c>
  400b22:	1964      	adds	r4, r4, r5
  400b24:	f103 32ff 	add.w	r2, r3, #4294967295
  400b28:	f080 808f 	bcs.w	400c4a <__udivdi3+0x232>
  400b2c:	42a7      	cmp	r7, r4
  400b2e:	f240 808c 	bls.w	400c4a <__udivdi3+0x232>
  400b32:	3b02      	subs	r3, #2
  400b34:	ea43 4000 	orr.w	r0, r3, r0, lsl #16
  400b38:	4631      	mov	r1, r6
  400b3a:	e8bd 81f0 	ldmia.w	sp!, {r4, r5, r6, r7, r8, pc}
  400b3e:	2600      	movs	r6, #0
  400b40:	4630      	mov	r0, r6
  400b42:	4631      	mov	r1, r6
  400b44:	e8bd 81f0 	ldmia.w	sp!, {r4, r5, r6, r7, r8, pc}
  400b48:	f1c6 0420 	rsb	r4, r6, #32
  400b4c:	fa22 f504 	lsr.w	r5, r2, r4
  400b50:	40b3      	lsls	r3, r6
  400b52:	432b      	orrs	r3, r5
  400b54:	fa20 fc04 	lsr.w	ip, r0, r4
  400b58:	fa01 f706 	lsl.w	r7, r1, r6
  400b5c:	fa21 f504 	lsr.w	r5, r1, r4
  400b60:	ea4f 4e13 	mov.w	lr, r3, lsr #16
  400b64:	ea4c 0707 	orr.w	r7, ip, r7
  400b68:	fbb5 f8fe 	udiv	r8, r5, lr
  400b6c:	0c39      	lsrs	r1, r7, #16
  400b6e:	fb0e 5518 	mls	r5, lr, r8, r5
  400b72:	fa1f fc83 	uxth.w	ip, r3
  400b76:	ea41 4505 	orr.w	r5, r1, r5, lsl #16
  400b7a:	fb0c f108 	mul.w	r1, ip, r8
  400b7e:	42a9      	cmp	r1, r5
  400b80:	fa02 f206 	lsl.w	r2, r2, r6
  400b84:	d904      	bls.n	400b90 <__udivdi3+0x178>
  400b86:	18ed      	adds	r5, r5, r3
  400b88:	f108 34ff 	add.w	r4, r8, #4294967295
  400b8c:	d367      	bcc.n	400c5e <__udivdi3+0x246>
  400b8e:	46a0      	mov	r8, r4
  400b90:	1a6d      	subs	r5, r5, r1
  400b92:	b2bf      	uxth	r7, r7
  400b94:	fbb5 f4fe 	udiv	r4, r5, lr
  400b98:	fb0e 5514 	mls	r5, lr, r4, r5
  400b9c:	ea47 4105 	orr.w	r1, r7, r5, lsl #16
  400ba0:	fb0c fc04 	mul.w	ip, ip, r4
  400ba4:	458c      	cmp	ip, r1
  400ba6:	d904      	bls.n	400bb2 <__udivdi3+0x19a>
  400ba8:	18c9      	adds	r1, r1, r3
  400baa:	f104 35ff 	add.w	r5, r4, #4294967295
  400bae:	d35c      	bcc.n	400c6a <__udivdi3+0x252>
  400bb0:	462c      	mov	r4, r5
  400bb2:	ea44 4408 	orr.w	r4, r4, r8, lsl #16
  400bb6:	ebcc 0101 	rsb	r1, ip, r1
  400bba:	fba4 2302 	umull	r2, r3, r4, r2
  400bbe:	4299      	cmp	r1, r3
  400bc0:	d348      	bcc.n	400c54 <__udivdi3+0x23c>
  400bc2:	d044      	beq.n	400c4e <__udivdi3+0x236>
  400bc4:	4620      	mov	r0, r4
  400bc6:	2600      	movs	r6, #0
  400bc8:	e76c      	b.n	400aa4 <__udivdi3+0x8c>
  400bca:	f1c8 0420 	rsb	r4, r8, #32
  400bce:	fa01 f308 	lsl.w	r3, r1, r8
  400bd2:	fa05 f508 	lsl.w	r5, r5, r8
  400bd6:	fa20 f704 	lsr.w	r7, r0, r4
  400bda:	40e1      	lsrs	r1, r4
  400bdc:	ea4f 4e15 	mov.w	lr, r5, lsr #16
  400be0:	431f      	orrs	r7, r3
  400be2:	fbb1 f6fe 	udiv	r6, r1, lr
  400be6:	0c3a      	lsrs	r2, r7, #16
  400be8:	fb0e 1116 	mls	r1, lr, r6, r1
  400bec:	fa1f fc85 	uxth.w	ip, r5
  400bf0:	ea42 4301 	orr.w	r3, r2, r1, lsl #16
  400bf4:	fb0c f206 	mul.w	r2, ip, r6
  400bf8:	429a      	cmp	r2, r3
  400bfa:	fa00 f408 	lsl.w	r4, r0, r8
  400bfe:	d907      	bls.n	400c10 <__udivdi3+0x1f8>
  400c00:	195b      	adds	r3, r3, r5
  400c02:	f106 31ff 	add.w	r1, r6, #4294967295
  400c06:	d237      	bcs.n	400c78 <__udivdi3+0x260>
  400c08:	429a      	cmp	r2, r3
  400c0a:	d935      	bls.n	400c78 <__udivdi3+0x260>
  400c0c:	3e02      	subs	r6, #2
  400c0e:	442b      	add	r3, r5
  400c10:	1a9b      	subs	r3, r3, r2
  400c12:	b2bf      	uxth	r7, r7
  400c14:	fbb3 f0fe 	udiv	r0, r3, lr
  400c18:	fb0e 3310 	mls	r3, lr, r0, r3
  400c1c:	ea47 4303 	orr.w	r3, r7, r3, lsl #16
  400c20:	fb0c f100 	mul.w	r1, ip, r0
  400c24:	4299      	cmp	r1, r3
  400c26:	d907      	bls.n	400c38 <__udivdi3+0x220>
  400c28:	195b      	adds	r3, r3, r5
  400c2a:	f100 32ff 	add.w	r2, r0, #4294967295
  400c2e:	d221      	bcs.n	400c74 <__udivdi3+0x25c>
  400c30:	4299      	cmp	r1, r3
  400c32:	d91f      	bls.n	400c74 <__udivdi3+0x25c>
  400c34:	3802      	subs	r0, #2
  400c36:	442b      	add	r3, r5
  400c38:	1a5a      	subs	r2, r3, r1
  400c3a:	ea40 4606 	orr.w	r6, r0, r6, lsl #16
  400c3e:	4667      	mov	r7, ip
  400c40:	e750      	b.n	400ae4 <__udivdi3+0xcc>
  400c42:	4610      	mov	r0, r2
  400c44:	e716      	b.n	400a74 <__udivdi3+0x5c>
  400c46:	460b      	mov	r3, r1
  400c48:	e729      	b.n	400a9e <__udivdi3+0x86>
  400c4a:	4613      	mov	r3, r2
  400c4c:	e772      	b.n	400b34 <__udivdi3+0x11c>
  400c4e:	40b0      	lsls	r0, r6
  400c50:	4290      	cmp	r0, r2
  400c52:	d2b7      	bcs.n	400bc4 <__udivdi3+0x1ac>
  400c54:	1e60      	subs	r0, r4, #1
  400c56:	2600      	movs	r6, #0
  400c58:	e724      	b.n	400aa4 <__udivdi3+0x8c>
  400c5a:	4630      	mov	r0, r6
  400c5c:	e722      	b.n	400aa4 <__udivdi3+0x8c>
  400c5e:	42a9      	cmp	r1, r5
  400c60:	d995      	bls.n	400b8e <__udivdi3+0x176>
  400c62:	f1a8 0802 	sub.w	r8, r8, #2
  400c66:	441d      	add	r5, r3
  400c68:	e792      	b.n	400b90 <__udivdi3+0x178>
  400c6a:	458c      	cmp	ip, r1
  400c6c:	d9a0      	bls.n	400bb0 <__udivdi3+0x198>
  400c6e:	3c02      	subs	r4, #2
  400c70:	4419      	add	r1, r3
  400c72:	e79e      	b.n	400bb2 <__udivdi3+0x19a>
  400c74:	4610      	mov	r0, r2
  400c76:	e7df      	b.n	400c38 <__udivdi3+0x220>
  400c78:	460e      	mov	r6, r1
  400c7a:	e7c9      	b.n	400c10 <__udivdi3+0x1f8>
  400c7c:	3802      	subs	r0, #2
  400c7e:	4429      	add	r1, r5
  400c80:	e743      	b.n	400b0a <__udivdi3+0xf2>
  400c82:	bf00      	nop

00400c84 <__libc_init_array>:
  400c84:	b570      	push	{r4, r5, r6, lr}
  400c86:	4e0f      	ldr	r6, [pc, #60]	; (400cc4 <__libc_init_array+0x40>)
  400c88:	4d0f      	ldr	r5, [pc, #60]	; (400cc8 <__libc_init_array+0x44>)
  400c8a:	1b76      	subs	r6, r6, r5
  400c8c:	10b6      	asrs	r6, r6, #2
  400c8e:	bf18      	it	ne
  400c90:	2400      	movne	r4, #0
  400c92:	d005      	beq.n	400ca0 <__libc_init_array+0x1c>
  400c94:	3401      	adds	r4, #1
  400c96:	f855 3b04 	ldr.w	r3, [r5], #4
  400c9a:	4798      	blx	r3
  400c9c:	42a6      	cmp	r6, r4
  400c9e:	d1f9      	bne.n	400c94 <__libc_init_array+0x10>
  400ca0:	4e0a      	ldr	r6, [pc, #40]	; (400ccc <__libc_init_array+0x48>)
  400ca2:	4d0b      	ldr	r5, [pc, #44]	; (400cd0 <__libc_init_array+0x4c>)
  400ca4:	1b76      	subs	r6, r6, r5
  400ca6:	f000 f891 	bl	400dcc <_init>
  400caa:	10b6      	asrs	r6, r6, #2
  400cac:	bf18      	it	ne
  400cae:	2400      	movne	r4, #0
  400cb0:	d006      	beq.n	400cc0 <__libc_init_array+0x3c>
  400cb2:	3401      	adds	r4, #1
  400cb4:	f855 3b04 	ldr.w	r3, [r5], #4
  400cb8:	4798      	blx	r3
  400cba:	42a6      	cmp	r6, r4
  400cbc:	d1f9      	bne.n	400cb2 <__libc_init_array+0x2e>
  400cbe:	bd70      	pop	{r4, r5, r6, pc}
  400cc0:	bd70      	pop	{r4, r5, r6, pc}
  400cc2:	bf00      	nop
  400cc4:	00400dd8 	.word	0x00400dd8
  400cc8:	00400dd8 	.word	0x00400dd8
  400ccc:	00400de0 	.word	0x00400de0
  400cd0:	00400dd8 	.word	0x00400dd8

00400cd4 <register_fini>:
  400cd4:	4b02      	ldr	r3, [pc, #8]	; (400ce0 <register_fini+0xc>)
  400cd6:	b113      	cbz	r3, 400cde <register_fini+0xa>
  400cd8:	4802      	ldr	r0, [pc, #8]	; (400ce4 <register_fini+0x10>)
  400cda:	f000 b805 	b.w	400ce8 <atexit>
  400cde:	4770      	bx	lr
  400ce0:	00000000 	.word	0x00000000
  400ce4:	00400cf5 	.word	0x00400cf5

00400ce8 <atexit>:
  400ce8:	4601      	mov	r1, r0
  400cea:	2000      	movs	r0, #0
  400cec:	4602      	mov	r2, r0
  400cee:	4603      	mov	r3, r0
  400cf0:	f000 b816 	b.w	400d20 <__register_exitproc>

00400cf4 <__libc_fini_array>:
  400cf4:	b538      	push	{r3, r4, r5, lr}
  400cf6:	4b08      	ldr	r3, [pc, #32]	; (400d18 <__libc_fini_array+0x24>)
  400cf8:	4d08      	ldr	r5, [pc, #32]	; (400d1c <__libc_fini_array+0x28>)
  400cfa:	1aed      	subs	r5, r5, r3
  400cfc:	10ac      	asrs	r4, r5, #2
  400cfe:	bf18      	it	ne
  400d00:	18ed      	addne	r5, r5, r3
  400d02:	d005      	beq.n	400d10 <__libc_fini_array+0x1c>
  400d04:	3c01      	subs	r4, #1
  400d06:	f855 3d04 	ldr.w	r3, [r5, #-4]!
  400d0a:	4798      	blx	r3
  400d0c:	2c00      	cmp	r4, #0
  400d0e:	d1f9      	bne.n	400d04 <__libc_fini_array+0x10>
  400d10:	e8bd 4038 	ldmia.w	sp!, {r3, r4, r5, lr}
  400d14:	f000 b864 	b.w	400de0 <_fini>
  400d18:	00400dec 	.word	0x00400dec
  400d1c:	00400df0 	.word	0x00400df0

00400d20 <__register_exitproc>:
  400d20:	e92d 47f0 	stmdb	sp!, {r4, r5, r6, r7, r8, r9, sl, lr}
  400d24:	4c25      	ldr	r4, [pc, #148]	; (400dbc <__register_exitproc+0x9c>)
  400d26:	6825      	ldr	r5, [r4, #0]
  400d28:	f8d5 4148 	ldr.w	r4, [r5, #328]	; 0x148
  400d2c:	4606      	mov	r6, r0
  400d2e:	4688      	mov	r8, r1
  400d30:	4692      	mov	sl, r2
  400d32:	4699      	mov	r9, r3
  400d34:	b3cc      	cbz	r4, 400daa <__register_exitproc+0x8a>
  400d36:	6860      	ldr	r0, [r4, #4]
  400d38:	281f      	cmp	r0, #31
  400d3a:	dc18      	bgt.n	400d6e <__register_exitproc+0x4e>
  400d3c:	1c43      	adds	r3, r0, #1
  400d3e:	b17e      	cbz	r6, 400d60 <__register_exitproc+0x40>
  400d40:	eb04 0580 	add.w	r5, r4, r0, lsl #2
  400d44:	2101      	movs	r1, #1
  400d46:	f8c5 a088 	str.w	sl, [r5, #136]	; 0x88
  400d4a:	f8d4 7188 	ldr.w	r7, [r4, #392]	; 0x188
  400d4e:	fa01 f200 	lsl.w	r2, r1, r0
  400d52:	4317      	orrs	r7, r2
  400d54:	2e02      	cmp	r6, #2
  400d56:	f8c4 7188 	str.w	r7, [r4, #392]	; 0x188
  400d5a:	f8c5 9108 	str.w	r9, [r5, #264]	; 0x108
  400d5e:	d01e      	beq.n	400d9e <__register_exitproc+0x7e>
  400d60:	3002      	adds	r0, #2
  400d62:	6063      	str	r3, [r4, #4]
  400d64:	f844 8020 	str.w	r8, [r4, r0, lsl #2]
  400d68:	2000      	movs	r0, #0
  400d6a:	e8bd 87f0 	ldmia.w	sp!, {r4, r5, r6, r7, r8, r9, sl, pc}
  400d6e:	4b14      	ldr	r3, [pc, #80]	; (400dc0 <__register_exitproc+0xa0>)
  400d70:	b303      	cbz	r3, 400db4 <__register_exitproc+0x94>
  400d72:	f44f 70c8 	mov.w	r0, #400	; 0x190
  400d76:	f3af 8000 	nop.w
  400d7a:	4604      	mov	r4, r0
  400d7c:	b1d0      	cbz	r0, 400db4 <__register_exitproc+0x94>
  400d7e:	f8d5 3148 	ldr.w	r3, [r5, #328]	; 0x148
  400d82:	2700      	movs	r7, #0
  400d84:	e880 0088 	stmia.w	r0, {r3, r7}
  400d88:	f8c5 4148 	str.w	r4, [r5, #328]	; 0x148
  400d8c:	4638      	mov	r0, r7
  400d8e:	2301      	movs	r3, #1
  400d90:	f8c4 7188 	str.w	r7, [r4, #392]	; 0x188
  400d94:	f8c4 718c 	str.w	r7, [r4, #396]	; 0x18c
  400d98:	2e00      	cmp	r6, #0
  400d9a:	d0e1      	beq.n	400d60 <__register_exitproc+0x40>
  400d9c:	e7d0      	b.n	400d40 <__register_exitproc+0x20>
  400d9e:	f8d4 118c 	ldr.w	r1, [r4, #396]	; 0x18c
  400da2:	430a      	orrs	r2, r1
  400da4:	f8c4 218c 	str.w	r2, [r4, #396]	; 0x18c
  400da8:	e7da      	b.n	400d60 <__register_exitproc+0x40>
  400daa:	f505 74a6 	add.w	r4, r5, #332	; 0x14c
  400dae:	f8c5 4148 	str.w	r4, [r5, #328]	; 0x148
  400db2:	e7c0      	b.n	400d36 <__register_exitproc+0x16>
  400db4:	f04f 30ff 	mov.w	r0, #4294967295
  400db8:	e8bd 87f0 	ldmia.w	sp!, {r4, r5, r6, r7, r8, r9, sl, pc}
  400dbc:	00400dc8 	.word	0x00400dc8
  400dc0:	00000000 	.word	0x00000000
  400dc4:	00000043 	.word	0x00000043

00400dc8 <_global_impure_ptr>:
  400dc8:	20000010                                ... 

00400dcc <_init>:
  400dcc:	b5f8      	push	{r3, r4, r5, r6, r7, lr}
  400dce:	bf00      	nop
  400dd0:	bcf8      	pop	{r3, r4, r5, r6, r7}
  400dd2:	bc08      	pop	{r3}
  400dd4:	469e      	mov	lr, r3
  400dd6:	4770      	bx	lr

00400dd8 <__init_array_start>:
  400dd8:	00400cd5 	.word	0x00400cd5

00400ddc <__frame_dummy_init_array_entry>:
  400ddc:	004000f1                                ..@.

00400de0 <_fini>:
  400de0:	b5f8      	push	{r3, r4, r5, r6, r7, lr}
  400de2:	bf00      	nop
  400de4:	bcf8      	pop	{r3, r4, r5, r6, r7}
  400de6:	bc08      	pop	{r3}
  400de8:	469e      	mov	lr, r3
  400dea:	4770      	bx	lr

00400dec <__fini_array_start>:
  400dec:	004000cd 	.word	0x004000cd

Disassembly of section .relocate:

20000000 <portable_delay_cycles>:
RAMFUNC
void portable_delay_cycles(unsigned long n)
{
	UNUSED(n);

	__asm (
20000000:	f3bf 8f5f 	dmb	sy
20000004:	3801      	subs	r0, #1
20000006:	d1fb      	bne.n	20000000 <portable_delay_cycles>
20000008:	4770      	bx	lr
2000000a:	bf00      	nop

2000000c <SystemCoreClock>:
2000000c:	0900 003d                                   ..=.

20000010 <impure_data>:
20000010:	0000 0000 02fc 2000 0364 2000 03cc 2000     ....... d.. ... 
	...
20000044:	0dc4 0040 0000 0000 0000 0000 0000 0000     ..@.............
	...
200000b8:	0001 0000 0000 0000 330e abcd 1234 e66d     .........3..4.m.
200000c8:	deec 0005 000b 0000 0000 0000 0000 0000     ................
	...
